{
   57d57f29bab8d600ad4cf8f4bf3836d7
   Memcheck:Leak
   match-leak-kinds: reachable
   fun:_Znwm
   obj:/usr/lib/x86_64-linux-gnu/libLLVM-11.so.1
   fun:__pthread_once_slow
   fun:_ZN4llvm24InstructionCombiningPassC1Ev
   fun:LLVMAddInstructionCombiningPass
   obj:/usr/lib/x86_64-linux-gnu/dri/radeonsi_dri.so
   obj:/usr/lib/x86_64-linux-gnu/dri/radeonsi_dri.so
   obj:/usr/lib/x86_64-linux-gnu/dri/radeonsi_dri.so
   obj:/usr/lib/x86_64-linux-gnu/dri/radeonsi_dri.so
   obj:/usr/lib/x86_64-linux-gnu/dri/radeonsi_dri.so
   fun:start_thread
   fun:clone
}
{
   327db006f890a22550dd7c439ff18cb4
   Memcheck:Leak
   match-leak-kinds: reachable
   fun:_Znwm
   obj:/usr/lib/x86_64-linux-gnu/libLLVM-11.so.1
   fun:_ZN4llvm12PassRegistry12registerPassERKNS_8PassInfoEb
   obj:/usr/lib/x86_64-linux-gnu/libLLVM-11.so.1
   fun:__pthread_once_slow
   fun:_ZN4llvm29initializeMachineOutlinerPassERNS_12PassRegistryE
   fun:_ZN4llvm17initializeCodeGenERNS_12PassRegistryE
   fun:_ZN4llvm16TargetPassConfigC1ERNS_17LLVMTargetMachineERNS_6legacy15PassManagerBaseE
   obj:/usr/lib/x86_64-linux-gnu/libLLVM-11.so.1
   fun:_ZN4llvm17LLVMTargetMachine19addPassesToEmitFileERNS_6legacy15PassManagerBaseERNS_17raw_pwrite_streamEPS4_NS_15CodeGenFileTypeEbPNS_28MachineModuleInfoWrapperPassE
   obj:/usr/lib/x86_64-linux-gnu/dri/radeonsi_dri.so
   obj:/usr/lib/x86_64-linux-gnu/dri/radeonsi_dri.so
}
{
   6fdb8db740111963fcc8037b98ab410e
   Memcheck:Leak
   match-leak-kinds: reachable
   fun:_Znwm
   obj:/usr/lib/x86_64-linux-gnu/libLLVM-11.so.1
   fun:_ZN4llvm12PassRegistry12registerPassERKNS_8PassInfoEb
   obj:/usr/lib/x86_64-linux-gnu/libLLVM-11.so.1
   fun:__pthread_once_slow
   fun:_ZN4llvm31createShadowStackGCLoweringPassEv
   fun:_ZN4llvm16TargetPassConfig11addIRPassesEv
   obj:/usr/lib/x86_64-linux-gnu/libLLVM-11.so.1
   fun:_ZN4llvm16TargetPassConfig13addISelPassesEv
   fun:_ZN4llvm17LLVMTargetMachine19addPassesToEmitFileERNS_6legacy15PassManagerBaseERNS_17raw_pwrite_streamEPS4_NS_15CodeGenFileTypeEbPNS_28MachineModuleInfoWrapperPassE
   obj:/usr/lib/x86_64-linux-gnu/dri/radeonsi_dri.so
   obj:/usr/lib/x86_64-linux-gnu/dri/radeonsi_dri.so
}
{
   37a629b5c9ac8a238d4d76db765d6633
   Memcheck:Leak
   match-leak-kinds: reachable
   fun:malloc
   fun:_ZN6icu_677UMemorynwEm
   fun:_ZN6icu_6718CollationTailoringC1EPKNS_17CollationSettingsE
   fun:_ZN6icu_6713CollationRoot4loadER10UErrorCode
   fun:_ZN6icu_6713CollationRoot17getRootCacheEntryER10UErrorCode
   fun:_ZN6icu_6715CollationLoader13loadTailoringERKNS_6LocaleER10UErrorCode
   fun:_ZN6icu_678Collator12makeInstanceERKNS_6LocaleER10UErrorCode
   fun:_ZN6icu_678Collator14createInstanceERKNS_6LocaleER10UErrorCode
   fun:ucol_open_67
   obj:/usr/lib/x86_64-linux-gnu/libQt6Core.so.6.2.4
   fun:_ZN23QFileSystemModelPrivate12sortChildrenEiRK11QModelIndex
   fun:_ZN16QFileSystemModel4sortEiN2Qt9SortOrderE
}
{
   55ae0126b936be58dba1599cc1fed45d
   Memcheck:Leak
   match-leak-kinds: reachable
   fun:_Znwm
   obj:/usr/lib/x86_64-linux-gnu/libLLVM-11.so.1
   fun:_ZN4llvm12PassRegistry12registerPassERKNS_8PassInfoEb
   obj:/usr/lib/x86_64-linux-gnu/libLLVM-11.so.1
   fun:__pthread_once_slow
   fun:_ZN4llvm20createFlattenCFGPassEv
   obj:/usr/lib/x86_64-linux-gnu/libLLVM-11.so.1
   fun:_ZN4llvm16TargetPassConfig14addISelPrepareEv
   fun:_ZN4llvm16TargetPassConfig13addISelPassesEv
   fun:_ZN4llvm17LLVMTargetMachine19addPassesToEmitFileERNS_6legacy15PassManagerBaseERNS_17raw_pwrite_streamEPS4_NS_15CodeGenFileTypeEbPNS_28MachineModuleInfoWrapperPassE
   obj:/usr/lib/x86_64-linux-gnu/dri/radeonsi_dri.so
   obj:/usr/lib/x86_64-linux-gnu/dri/radeonsi_dri.so
}
{
   00b962446e1092a07a3939d6514f7dbb
   Memcheck:Leak
   match-leak-kinds: reachable
   fun:malloc
   fun:_XlcSetConverter
   fun:_XlcInitCTInfo
   obj:/usr/lib/x86_64-linux-gnu/libX11.so.6.4.0
   obj:/usr/lib/x86_64-linux-gnu/libX11.so.6.4.0
   fun:_XlcCreateLC
   fun:_XlcUtf8Loader
   fun:_XOpenLC
   fun:XmbTextListToTextProperty
   fun:_ZN10QXcbWindow14setWindowTitleEPK14QXcbConnectionjRK7QString
   fun:_ZN14QXcbConnection19getQtSelectionOwnerEv
   obj:/usr/lib/x86_64-linux-gnu/libQt6XcbQpa.so.6.2.4
}
{
   4bb02134a3031e4d4548ffff7a1d3e9d
   Memcheck:Leak
   match-leak-kinds: reachable
   fun:_Znwm
   obj:/usr/lib/x86_64-linux-gnu/libLLVM-11.so.1
   fun:_ZN4llvm12PassRegistry12registerPassERKNS_8PassInfoEb
   obj:/usr/lib/x86_64-linux-gnu/libLLVM-11.so.1
   fun:__pthread_once_slow
   fun:_ZN4llvm42initializePostDominatorTreeWrapperPassPassERNS_12PassRegistryE
   obj:/usr/lib/x86_64-linux-gnu/libLLVM-11.so.1
   fun:__pthread_once_slow
   fun:_ZN4llvm28initializeRegionInfoPassPassERNS_12PassRegistryE
   obj:/usr/lib/x86_64-linux-gnu/libLLVM-11.so.1
   fun:__pthread_once_slow
   fun:_ZN4llvm32initializeScopInfoRegionPassPassERNS_12PassRegistryE
}
{
   c22a36250948e9f93f9c152a384862af
   Memcheck:Leak
   match-leak-kinds: reachable
   fun:_Znwm
   obj:/usr/lib/x86_64-linux-gnu/libLLVM-11.so.1
   fun:_ZN4llvm12PassRegistry12registerPassERKNS_8PassInfoEb
   obj:/usr/lib/x86_64-linux-gnu/libLLVM-11.so.1
   fun:__pthread_once_slow
   fun:_ZN4llvm27initializeHardwareLoopsPassERNS_12PassRegistryE
   fun:_ZN4llvm17initializeCodeGenERNS_12PassRegistryE
   fun:_ZN4llvm16TargetPassConfigC1ERNS_17LLVMTargetMachineERNS_6legacy15PassManagerBaseE
   obj:/usr/lib/x86_64-linux-gnu/libLLVM-11.so.1
   fun:_ZN4llvm17LLVMTargetMachine19addPassesToEmitFileERNS_6legacy15PassManagerBaseERNS_17raw_pwrite_streamEPS4_NS_15CodeGenFileTypeEbPNS_28MachineModuleInfoWrapperPassE
   obj:/usr/lib/x86_64-linux-gnu/dri/radeonsi_dri.so
   obj:/usr/lib/x86_64-linux-gnu/dri/radeonsi_dri.so
}
{
   f64e39a7500ec9281de959a75c2bf476
   Memcheck:Leak
   match-leak-kinds: reachable
   fun:_Znwm
   obj:/usr/lib/x86_64-linux-gnu/libLLVM-11.so.1
   fun:_ZN4llvm12PassRegistry12registerPassERKNS_8PassInfoEb
   obj:/usr/lib/x86_64-linux-gnu/libLLVM-11.so.1
   fun:__pthread_once_slow
   fun:_ZN4llvm44initializeUnreachableBlockElimLegacyPassPassERNS_12PassRegistryE
   fun:_ZN4llvm17initializeCodeGenERNS_12PassRegistryE
   fun:_ZN4llvm16TargetPassConfigC1ERNS_17LLVMTargetMachineERNS_6legacy15PassManagerBaseE
   obj:/usr/lib/x86_64-linux-gnu/libLLVM-11.so.1
   fun:_ZN4llvm17LLVMTargetMachine19addPassesToEmitFileERNS_6legacy15PassManagerBaseERNS_17raw_pwrite_streamEPS4_NS_15CodeGenFileTypeEbPNS_28MachineModuleInfoWrapperPassE
   obj:/usr/lib/x86_64-linux-gnu/dri/radeonsi_dri.so
   obj:/usr/lib/x86_64-linux-gnu/dri/radeonsi_dri.so
}
{
   4ed4312d377e1e503a8017e0c3671c0f
   Memcheck:Leak
   match-leak-kinds: reachable
   fun:_Znwm
   obj:/usr/lib/x86_64-linux-gnu/libLLVM-11.so.1
   fun:_ZN4llvm12PassRegistry12registerPassERKNS_8PassInfoEb
   obj:/usr/lib/x86_64-linux-gnu/libLLVM-11.so.1
   fun:__pthread_once_slow
   fun:_ZN4llvm30initializeMIRCanonicalizerPassERNS_12PassRegistryE
   fun:_ZN4llvm17initializeCodeGenERNS_12PassRegistryE
   fun:_ZN4llvm16TargetPassConfigC1ERNS_17LLVMTargetMachineERNS_6legacy15PassManagerBaseE
   obj:/usr/lib/x86_64-linux-gnu/libLLVM-11.so.1
   fun:_ZN4llvm17LLVMTargetMachine19addPassesToEmitFileERNS_6legacy15PassManagerBaseERNS_17raw_pwrite_streamEPS4_NS_15CodeGenFileTypeEbPNS_28MachineModuleInfoWrapperPassE
   obj:/usr/lib/x86_64-linux-gnu/dri/radeonsi_dri.so
   obj:/usr/lib/x86_64-linux-gnu/dri/radeonsi_dri.so
}
{
   940213f0f91386763b8a611a831ef5d0
   Memcheck:Leak
   match-leak-kinds: reachable
   fun:calloc
   obj:/usr/lib/x86_64-linux-gnu/libX11.so.6.4.0
   fun:_XlcCreateLC
   fun:_XlcUtf8Loader
   fun:_XOpenLC
   fun:XmbTextListToTextProperty
   fun:_ZN10QXcbWindow14setWindowTitleEPK14QXcbConnectionjRK7QString
   fun:_ZN14QXcbConnection19getQtSelectionOwnerEv
   obj:/usr/lib/x86_64-linux-gnu/libQt6XcbQpa.so.6.2.4
   fun:_ZN14QXcbConnection17initializeScreensEv
   fun:_ZN14QXcbConnectionC1EP19QXcbNativeInterfacebjPKc
   fun:_ZN15QXcbIntegrationC1ERK5QListI7QStringERiPPc
}
{
   b29109cfabebeff6cf83146e523df346
   Memcheck:Leak
   match-leak-kinds: reachable
   fun:_Znwm
   obj:/usr/lib/x86_64-linux-gnu/libLLVM-11.so.1
   fun:_ZN4llvm12PassRegistry12registerPassERKNS_8PassInfoEb
   obj:/usr/lib/x86_64-linux-gnu/libLLVM-11.so.1
   fun:__pthread_once_slow
   fun:_ZN4llvm31initializeRegisterCoalescerPassERNS_12PassRegistryE
   obj:/usr/lib/x86_64-linux-gnu/libLLVM-11.so.1
   fun:__pthread_once_slow
   fun:_ZN4llvm21initializeRABasicPassERNS_12PassRegistryE
   fun:_ZN4llvm17initializeCodeGenERNS_12PassRegistryE
   fun:_ZN4llvm16TargetPassConfigC1ERNS_17LLVMTargetMachineERNS_6legacy15PassManagerBaseE
   obj:/usr/lib/x86_64-linux-gnu/libLLVM-11.so.1
}
{
   144a861255451a27b9d4081aa6dd2150
   Memcheck:Leak
   match-leak-kinds: reachable
   fun:calloc
   fun:_dl_check_map_versions
   fun:dl_open_worker
   fun:_dl_catch_exception
   fun:_dl_open
   fun:dlopen_doit
   fun:_dl_catch_exception
   fun:_dl_catch_error
   fun:_dlerror_run
   fun:dlopen@@GLIBC_2.2.5
   obj:/usr/lib/x86_64-linux-gnu/libQt6Core.so.6.2.4
   obj:/usr/lib/x86_64-linux-gnu/libQt6Core.so.6.2.4
}
{
   7d262e791cde2be7e470d036e6a29c5b
   Memcheck:Leak
   match-leak-kinds: reachable
   fun:_Znwm
   obj:/usr/lib/x86_64-linux-gnu/libLLVM-11.so.1
   fun:__pthread_once_slow
   fun:_ZN4llvm31initializeRegisterCoalescerPassERNS_12PassRegistryE
   obj:/usr/lib/x86_64-linux-gnu/libLLVM-11.so.1
   fun:__pthread_once_slow
   fun:_ZN4llvm21initializeRABasicPassERNS_12PassRegistryE
   fun:_ZN4llvm17initializeCodeGenERNS_12PassRegistryE
   fun:_ZN4llvm16TargetPassConfigC1ERNS_17LLVMTargetMachineERNS_6legacy15PassManagerBaseE
   obj:/usr/lib/x86_64-linux-gnu/libLLVM-11.so.1
   fun:_ZN4llvm17LLVMTargetMachine19addPassesToEmitFileERNS_6legacy15PassManagerBaseERNS_17raw_pwrite_streamEPS4_NS_15CodeGenFileTypeEbPNS_28MachineModuleInfoWrapperPassE
   obj:/usr/lib/x86_64-linux-gnu/dri/radeonsi_dri.so
}
{
   8da0356afe44dfdd77c202c6d11aeb95
   Memcheck:Leak
   match-leak-kinds: reachable
   fun:_Znwm
   obj:/usr/lib/x86_64-linux-gnu/libLLVM-11.so.1
   fun:_ZN4llvm12PassRegistry12registerPassERKNS_8PassInfoEb
   obj:/usr/lib/x86_64-linux-gnu/libLLVM-11.so.1
   fun:__pthread_once_slow
   fun:_ZN4llvm24initializeMachineCSEPassERNS_12PassRegistryE
   fun:_ZN4llvm17initializeCodeGenERNS_12PassRegistryE
   fun:_ZN4llvm16TargetPassConfigC1ERNS_17LLVMTargetMachineERNS_6legacy15PassManagerBaseE
   obj:/usr/lib/x86_64-linux-gnu/libLLVM-11.so.1
   fun:_ZN4llvm17LLVMTargetMachine19addPassesToEmitFileERNS_6legacy15PassManagerBaseERNS_17raw_pwrite_streamEPS4_NS_15CodeGenFileTypeEbPNS_28MachineModuleInfoWrapperPassE
   obj:/usr/lib/x86_64-linux-gnu/dri/radeonsi_dri.so
   obj:/usr/lib/x86_64-linux-gnu/dri/radeonsi_dri.so
}
{
   bd0a2e0af6fa5c7c7933e9fa2722df76
   Memcheck:Leak
   match-leak-kinds: reachable
   fun:_Znwm
   obj:/usr/lib/x86_64-linux-gnu/libLLVM-11.so.1
   fun:__pthread_once_slow
   fun:_ZN4llvm30initializeExpandMemCmpPassPassERNS_12PassRegistryE
   fun:_ZN4llvm17initializeCodeGenERNS_12PassRegistryE
   fun:_ZN4llvm16TargetPassConfigC1ERNS_17LLVMTargetMachineERNS_6legacy15PassManagerBaseE
   obj:/usr/lib/x86_64-linux-gnu/libLLVM-11.so.1
   fun:_ZN4llvm17LLVMTargetMachine19addPassesToEmitFileERNS_6legacy15PassManagerBaseERNS_17raw_pwrite_streamEPS4_NS_15CodeGenFileTypeEbPNS_28MachineModuleInfoWrapperPassE
   obj:/usr/lib/x86_64-linux-gnu/dri/radeonsi_dri.so
   obj:/usr/lib/x86_64-linux-gnu/dri/radeonsi_dri.so
   obj:/usr/lib/x86_64-linux-gnu/dri/radeonsi_dri.so
   obj:/usr/lib/x86_64-linux-gnu/dri/radeonsi_dri.so
}
{
   960680e9c3585273846af59f54cb5bfa
   Memcheck:Leak
   match-leak-kinds: reachable
   fun:_Znwm
   obj:/usr/lib/x86_64-linux-gnu/libLLVM-11.so.1
   fun:__pthread_once_slow
   fun:_ZN4llvm26initializeIRTranslatorPassERNS_12PassRegistryE
   fun:_ZN4llvm20initializeGlobalISelERNS_12PassRegistryE
   fun:LLVMInitializeAMDGPUTarget
   obj:/usr/lib/x86_64-linux-gnu/dri/radeonsi_dri.so
   fun:__pthread_once_slow
   obj:/usr/lib/x86_64-linux-gnu/dri/radeonsi_dri.so
   obj:/usr/lib/x86_64-linux-gnu/dri/radeonsi_dri.so
   obj:/usr/lib/x86_64-linux-gnu/dri/radeonsi_dri.so
   obj:/usr/lib/x86_64-linux-gnu/dri/radeonsi_dri.so
}
{
   d5999b220f83190a0b4de135dee61ed4
   Memcheck:Leak
   match-leak-kinds: reachable
   fun:_Znwm
   fun:_ZN4llvm12PassRegistry23addRegistrationListenerEPNS_24PassRegistrationListenerE
   obj:/usr/lib/x86_64-linux-gnu/libLLVM-11.so.1
   fun:call_init.part.0
   fun:call_init
   fun:_dl_init
   fun:_dl_catch_exception
   fun:dl_open_worker
   fun:_dl_catch_exception
   fun:_dl_open
   fun:dlopen_doit
   fun:_dl_catch_exception
   fun:_dl_catch_error
}
{
   5cf9506d2c1a53f70651fe916f1a938c
   Memcheck:Leak
   match-leak-kinds: reachable
   fun:_Znwm
   obj:/usr/lib/x86_64-linux-gnu/libLLVM-11.so.1
   fun:__pthread_once_slow
   fun:_ZN4llvm28createLoopStrengthReducePassEv
   fun:_ZN4llvm16TargetPassConfig11addIRPassesEv
   obj:/usr/lib/x86_64-linux-gnu/libLLVM-11.so.1
   fun:_ZN4llvm16TargetPassConfig13addISelPassesEv
   fun:_ZN4llvm17LLVMTargetMachine19addPassesToEmitFileERNS_6legacy15PassManagerBaseERNS_17raw_pwrite_streamEPS4_NS_15CodeGenFileTypeEbPNS_28MachineModuleInfoWrapperPassE
   obj:/usr/lib/x86_64-linux-gnu/dri/radeonsi_dri.so
   obj:/usr/lib/x86_64-linux-gnu/dri/radeonsi_dri.so
   obj:/usr/lib/x86_64-linux-gnu/dri/radeonsi_dri.so
   obj:/usr/lib/x86_64-linux-gnu/dri/radeonsi_dri.so
}
{
   077e1c11b73f1eb161da483086f4b631
   Memcheck:Leak
   match-leak-kinds: reachable
   fun:_Znwm
   obj:/usr/lib/x86_64-linux-gnu/libLLVM-11.so.1
   fun:_ZN4llvm12PassRegistry12registerPassERKNS_8PassInfoEb
   obj:/usr/lib/x86_64-linux-gnu/libLLVM-11.so.1
   fun:__pthread_once_slow
   fun:_ZN4llvm22initializeRAGreedyPassERNS_12PassRegistryE
   fun:_ZN4llvm17initializeCodeGenERNS_12PassRegistryE
   fun:_ZN4llvm16TargetPassConfigC1ERNS_17LLVMTargetMachineERNS_6legacy15PassManagerBaseE
   obj:/usr/lib/x86_64-linux-gnu/libLLVM-11.so.1
   fun:_ZN4llvm17LLVMTargetMachine19addPassesToEmitFileERNS_6legacy15PassManagerBaseERNS_17raw_pwrite_streamEPS4_NS_15CodeGenFileTypeEbPNS_28MachineModuleInfoWrapperPassE
   obj:/usr/lib/x86_64-linux-gnu/dri/radeonsi_dri.so
   obj:/usr/lib/x86_64-linux-gnu/dri/radeonsi_dri.so
}
{
   1d5ca0602f27539e998b50b226cd64c8
   Memcheck:Leak
   match-leak-kinds: reachable
   fun:_Znwm
   obj:/usr/lib/x86_64-linux-gnu/libLLVM-11.so.1
   fun:_ZN4llvm12PassRegistry12registerPassERKNS_8PassInfoEb
   obj:/usr/lib/x86_64-linux-gnu/libLLVM-11.so.1
   fun:__pthread_once_slow
   fun:_ZN4llvm27initializeFuncletLayoutPassERNS_12PassRegistryE
   fun:_ZN4llvm17initializeCodeGenERNS_12PassRegistryE
   fun:_ZN4llvm16TargetPassConfigC1ERNS_17LLVMTargetMachineERNS_6legacy15PassManagerBaseE
   obj:/usr/lib/x86_64-linux-gnu/libLLVM-11.so.1
   fun:_ZN4llvm17LLVMTargetMachine19addPassesToEmitFileERNS_6legacy15PassManagerBaseERNS_17raw_pwrite_streamEPS4_NS_15CodeGenFileTypeEbPNS_28MachineModuleInfoWrapperPassE
   obj:/usr/lib/x86_64-linux-gnu/dri/radeonsi_dri.so
   obj:/usr/lib/x86_64-linux-gnu/dri/radeonsi_dri.so
}
{
   57d5369c60ab1c22f06b458087a02a04
   Memcheck:Leak
   match-leak-kinds: reachable
   fun:malloc
   obj:/usr/lib/x86_64-linux-gnu/libglib-2.0.so.0.6600.8
   fun:g_private_get
   fun:g_slice_alloc
   fun:g_hash_table_new_full
   obj:/usr/lib/x86_64-linux-gnu/libglib-2.0.so.0.6600.8
   fun:call_init.part.0
   fun:call_init
   fun:_dl_init
   obj:/usr/lib/x86_64-linux-gnu/ld-2.31.so
}
{
   e398ccf3691a55c5cbc2288347ed763c
   Memcheck:Leak
   match-leak-kinds: reachable
   fun:_Znwm
   obj:/usr/lib/x86_64-linux-gnu/libLLVM-11.so.1
   obj:/usr/lib/x86_64-linux-gnu/libLLVM-11.so.1
   obj:/usr/lib/x86_64-linux-gnu/libLLVM-11.so.1
   fun:_ZN4llvm2cl23ParseCommandLineOptionsEiPKPKcNS_9StringRefEPNS_11raw_ostreamES2_b
   fun:LLVMParseCommandLineOptions
   obj:/usr/lib/x86_64-linux-gnu/dri/radeonsi_dri.so
   fun:__pthread_once_slow
   obj:/usr/lib/x86_64-linux-gnu/dri/radeonsi_dri.so
   obj:/usr/lib/x86_64-linux-gnu/dri/radeonsi_dri.so
   obj:/usr/lib/x86_64-linux-gnu/dri/radeonsi_dri.so
   obj:/usr/lib/x86_64-linux-gnu/dri/radeonsi_dri.so
}
{
   ee94dac1a671867ef7aff39a1d2fc20d
   Memcheck:Leak
   match-leak-kinds: reachable
   fun:malloc
   fun:_dl_new_object
   fun:_dl_map_object_from_fd
   fun:_dl_map_object
   fun:openaux
   fun:_dl_catch_exception
   fun:_dl_map_object_deps
   fun:dl_open_worker
   fun:_dl_catch_exception
   fun:_dl_open
   fun:dlopen_doit
   fun:_dl_catch_exception
}
{
   b6c839bc16b8b0dfb6112f4e693261da
   Memcheck:Leak
   match-leak-kinds: reachable
   fun:_Znwm
   obj:/usr/lib/x86_64-linux-gnu/libLLVM-11.so.1
   fun:__pthread_once_slow
   fun:_ZN4llvm36createSeparateConstOffsetFromGEPPassEb
   obj:/usr/lib/x86_64-linux-gnu/libLLVM-11.so.1
   fun:_ZN4llvm16TargetPassConfig13addISelPassesEv
   fun:_ZN4llvm17LLVMTargetMachine19addPassesToEmitFileERNS_6legacy15PassManagerBaseERNS_17raw_pwrite_streamEPS4_NS_15CodeGenFileTypeEbPNS_28MachineModuleInfoWrapperPassE
   obj:/usr/lib/x86_64-linux-gnu/dri/radeonsi_dri.so
   obj:/usr/lib/x86_64-linux-gnu/dri/radeonsi_dri.so
   obj:/usr/lib/x86_64-linux-gnu/dri/radeonsi_dri.so
   obj:/usr/lib/x86_64-linux-gnu/dri/radeonsi_dri.so
   obj:/usr/lib/x86_64-linux-gnu/dri/radeonsi_dri.so
}
{
   1bdadb1d806d0573328588286325b8e4
   Memcheck:Leak
   match-leak-kinds: reachable
   fun:_Znwm
   obj:/usr/lib/x86_64-linux-gnu/libLLVM-11.so.1
   fun:__pthread_once_slow
   fun:_ZN4llvm32initializeIVUsersWrapperPassPassERNS_12PassRegistryE
   obj:/usr/lib/x86_64-linux-gnu/libLLVM-11.so.1
   fun:__pthread_once_slow
   fun:_ZN4llvm28createLoopStrengthReducePassEv
   fun:_ZN4llvm16TargetPassConfig11addIRPassesEv
   obj:/usr/lib/x86_64-linux-gnu/libLLVM-11.so.1
   fun:_ZN4llvm16TargetPassConfig13addISelPassesEv
   fun:_ZN4llvm17LLVMTargetMachine19addPassesToEmitFileERNS_6legacy15PassManagerBaseERNS_17raw_pwrite_streamEPS4_NS_15CodeGenFileTypeEbPNS_28MachineModuleInfoWrapperPassE
   obj:/usr/lib/x86_64-linux-gnu/dri/radeonsi_dri.so
}
{
   803df215763ab52ab826501297437eb1
   Memcheck:Leak
   match-leak-kinds: reachable
   fun:_Znwm
   obj:/usr/lib/x86_64-linux-gnu/libLLVM-11.so.1
   fun:__pthread_once_slow
   fun:_ZN4llvm29initializeFlattenSchedulePassERNS_12PassRegistryE
   fun:_ZN5polly21initializePollyPassesERN4llvm12PassRegistryE
   obj:/usr/lib/x86_64-linux-gnu/libLLVM-11.so.1
   fun:call_init.part.0
   fun:call_init
   fun:_dl_init
   fun:_dl_catch_exception
   fun:dl_open_worker
   fun:_dl_catch_exception
   fun:_dl_open
}
{
   d1a9f2993ee257a3582ab621e9d5e5ba
   Memcheck:Leak
   match-leak-kinds: reachable
   fun:_Znwm
   obj:/usr/lib/x86_64-linux-gnu/libLLVM-11.so.1
   obj:/usr/lib/x86_64-linux-gnu/libLLVM-11.so.1
   fun:_ZN4llvm2cl6Option11addArgumentEv
   obj:/usr/lib/x86_64-linux-gnu/libLLVM-11.so.1
   fun:call_init.part.0
   fun:call_init
   fun:_dl_init
   fun:_dl_catch_exception
   fun:dl_open_worker
   fun:_dl_catch_exception
   fun:_dl_open
   fun:dlopen_doit
}
{
   ea9a319f8377126472173d024ddf85bf
   Memcheck:Leak
   match-leak-kinds: reachable
   fun:malloc
   fun:_ZN6icu_677UMemorynwEm
   fun:_ZN6icu_6713Norm2AllModes17createNFCInstanceER10UErrorCode
   fun:_ZN6icu_6713Norm2AllModes14getNFCInstanceER10UErrorCode
   fun:_ZN6icu_6718Normalizer2Factory10getNFCImplER10UErrorCode
   fun:_ZN6icu_6718CollationTailoring15ensureOwnedDataER10UErrorCode
   fun:_ZN6icu_6719CollationDataReader4readEPKNS_18CollationTailoringEPKhiRS1_R10UErrorCode
   fun:_ZN6icu_6713CollationRoot4loadER10UErrorCode
   fun:_ZN6icu_6713CollationRoot17getRootCacheEntryER10UErrorCode
   fun:_ZN6icu_6715CollationLoader13loadTailoringERKNS_6LocaleER10UErrorCode
   fun:_ZN6icu_678Collator12makeInstanceERKNS_6LocaleER10UErrorCode
   fun:_ZN6icu_678Collator14createInstanceERKNS_6LocaleER10UErrorCode
}
{
   a48b3f3bce81976da8b59d8bcbbb0971
   Memcheck:Leak
   match-leak-kinds: reachable
   fun:_Znwm
   obj:/usr/lib/x86_64-linux-gnu/libLLVM-11.so.1
   fun:_ZN4llvm12PassRegistry12registerPassERKNS_8PassInfoEb
   obj:/usr/lib/x86_64-linux-gnu/libLLVM-11.so.1
   fun:__pthread_once_slow
   fun:_ZN4llvm30initializeMachinePipelinerPassERNS_12PassRegistryE
   fun:_ZN4llvm17initializeCodeGenERNS_12PassRegistryE
   fun:_ZN4llvm16TargetPassConfigC1ERNS_17LLVMTargetMachineERNS_6legacy15PassManagerBaseE
   obj:/usr/lib/x86_64-linux-gnu/libLLVM-11.so.1
   fun:_ZN4llvm17LLVMTargetMachine19addPassesToEmitFileERNS_6legacy15PassManagerBaseERNS_17raw_pwrite_streamEPS4_NS_15CodeGenFileTypeEbPNS_28MachineModuleInfoWrapperPassE
   obj:/usr/lib/x86_64-linux-gnu/dri/radeonsi_dri.so
   obj:/usr/lib/x86_64-linux-gnu/dri/radeonsi_dri.so
}
{
   7c5cf927cbaab10718e13c996a3a592a
   Memcheck:Leak
   match-leak-kinds: reachable
   fun:_Znwm
   obj:/usr/lib/x86_64-linux-gnu/libLLVM-11.so.1
   fun:__pthread_once_slow
   fun:_ZN4llvm28initializeFEntryInserterPassERNS_12PassRegistryE
   fun:_ZN4llvm17initializeCodeGenERNS_12PassRegistryE
   fun:_ZN4llvm16TargetPassConfigC1ERNS_17LLVMTargetMachineERNS_6legacy15PassManagerBaseE
   obj:/usr/lib/x86_64-linux-gnu/libLLVM-11.so.1
   fun:_ZN4llvm17LLVMTargetMachine19addPassesToEmitFileERNS_6legacy15PassManagerBaseERNS_17raw_pwrite_streamEPS4_NS_15CodeGenFileTypeEbPNS_28MachineModuleInfoWrapperPassE
   obj:/usr/lib/x86_64-linux-gnu/dri/radeonsi_dri.so
   obj:/usr/lib/x86_64-linux-gnu/dri/radeonsi_dri.so
   obj:/usr/lib/x86_64-linux-gnu/dri/radeonsi_dri.so
   obj:/usr/lib/x86_64-linux-gnu/dri/radeonsi_dri.so
}
{
   e6d15cb8d818101a31a841c59c3337c3
   Memcheck:Leak
   match-leak-kinds: reachable
   fun:_Znwm
   obj:/usr/lib/x86_64-linux-gnu/libLLVM-11.so.1
   fun:_ZN4llvm12PassRegistry12registerPassERKNS_8PassInfoEb
   obj:/usr/lib/x86_64-linux-gnu/libLLVM-11.so.1
   fun:__pthread_once_slow
   fun:_ZN4llvm30initializeExpandMemCmpPassPassERNS_12PassRegistryE
   fun:_ZN4llvm17initializeCodeGenERNS_12PassRegistryE
   fun:_ZN4llvm16TargetPassConfigC1ERNS_17LLVMTargetMachineERNS_6legacy15PassManagerBaseE
   obj:/usr/lib/x86_64-linux-gnu/libLLVM-11.so.1
   fun:_ZN4llvm17LLVMTargetMachine19addPassesToEmitFileERNS_6legacy15PassManagerBaseERNS_17raw_pwrite_streamEPS4_NS_15CodeGenFileTypeEbPNS_28MachineModuleInfoWrapperPassE
   obj:/usr/lib/x86_64-linux-gnu/dri/radeonsi_dri.so
   obj:/usr/lib/x86_64-linux-gnu/dri/radeonsi_dri.so
}
{
   024dd7b03f553420010710bf25e682c6
   Memcheck:Leak
   match-leak-kinds: reachable
   fun:_Znwm
   obj:/usr/lib/x86_64-linux-gnu/libLLVM-11.so.1
   fun:_ZN4llvm12PassRegistry12registerPassERKNS_8PassInfoEb
   obj:/usr/lib/x86_64-linux-gnu/libLLVM-11.so.1
   fun:__pthread_once_slow
   fun:_ZN4llvm28initializeCodegenCleanupPassERNS_12PassRegistryE
   fun:_ZN5polly21initializePollyPassesERN4llvm12PassRegistryE
   obj:/usr/lib/x86_64-linux-gnu/libLLVM-11.so.1
   fun:call_init.part.0
   fun:call_init
   fun:_dl_init
   fun:_dl_catch_exception
   fun:dl_open_worker
}
{
   cd5538a7b2f61729dbe1cdd024aa19ce
   Memcheck:Leak
   match-leak-kinds: reachable
   fun:_Znwm
   obj:/usr/lib/x86_64-linux-gnu/libLLVM-11.so.1
   fun:_ZN4llvm12PassRegistry12registerPassERKNS_8PassInfoEb
   obj:/usr/lib/x86_64-linux-gnu/libLLVM-11.so.1
   fun:__pthread_once_slow
   fun:_ZN4llvm26initializeFinalizeISelPassERNS_12PassRegistryE
   fun:_ZN4llvm17initializeCodeGenERNS_12PassRegistryE
   fun:_ZN4llvm16TargetPassConfigC1ERNS_17LLVMTargetMachineERNS_6legacy15PassManagerBaseE
   obj:/usr/lib/x86_64-linux-gnu/libLLVM-11.so.1
   fun:_ZN4llvm17LLVMTargetMachine19addPassesToEmitFileERNS_6legacy15PassManagerBaseERNS_17raw_pwrite_streamEPS4_NS_15CodeGenFileTypeEbPNS_28MachineModuleInfoWrapperPassE
   obj:/usr/lib/x86_64-linux-gnu/dri/radeonsi_dri.so
   obj:/usr/lib/x86_64-linux-gnu/dri/radeonsi_dri.so
}
{
   2d1af9616fae90cf0b09701bca5751b7
   Memcheck:Leak
   match-leak-kinds: reachable
   fun:_Znwm
   obj:/usr/lib/x86_64-linux-gnu/libLLVM-11.so.1
   fun:_ZN4llvm12PassRegistry12registerPassERKNS_8PassInfoEb
   obj:/usr/lib/x86_64-linux-gnu/libLLVM-11.so.1
   fun:__pthread_once_slow
   fun:_ZN4llvm43initializeProfileSummaryInfoWrapperPassPassERNS_12PassRegistryE
   obj:/usr/lib/x86_64-linux-gnu/libLLVM-11.so.1
   fun:__pthread_once_slow
   obj:/usr/lib/x86_64-linux-gnu/libLLVM-11.so.1
   fun:LLVMInitializeAMDGPUTarget
   obj:/usr/lib/x86_64-linux-gnu/dri/radeonsi_dri.so
   fun:__pthread_once_slow
}
{
   74f4c6f7181bc751ec47897c75255b7e
   Memcheck:Leak
   match-leak-kinds: reachable
   fun:_Znwm
   obj:/usr/lib/x86_64-linux-gnu/libLLVM-11.so.1
   fun:_ZNK4llvm17ManagedStaticBase21RegisterManagedStaticEPFPvvEPFvS1_E
   fun:_ZN4llvm18PassManagerBuilder18addGlobalExtensionENS0_16ExtensionPointTyESt8functionIFvRKS0_RNS_6legacy15PassManagerBaseEEE
   obj:/usr/lib/x86_64-linux-gnu/libLLVM-11.so.1
   fun:call_init.part.0
   fun:call_init
   fun:_dl_init
   fun:_dl_catch_exception
   fun:dl_open_worker
   fun:_dl_catch_exception
   fun:_dl_open
   fun:dlopen_doit
}
{
   f77db0f1c96e2d960fc362439b2023d9
   Memcheck:Leak
   match-leak-kinds: reachable
   fun:_Znwm
   obj:/usr/lib/x86_64-linux-gnu/libLLVM-11.so.1
   fun:__pthread_once_slow
   fun:_ZN4llvm38initializeLazyValueInfoWrapperPassPassERNS_12PassRegistryE
   obj:/usr/lib/x86_64-linux-gnu/libLLVM-11.so.1
   fun:__pthread_once_slow
   fun:_ZN4llvm21createLowerSwitchPassEv
   obj:/usr/lib/x86_64-linux-gnu/libLLVM-11.so.1
   fun:_ZN4llvm16TargetPassConfig13addISelPassesEv
   fun:_ZN4llvm17LLVMTargetMachine19addPassesToEmitFileERNS_6legacy15PassManagerBaseERNS_17raw_pwrite_streamEPS4_NS_15CodeGenFileTypeEbPNS_28MachineModuleInfoWrapperPassE
   obj:/usr/lib/x86_64-linux-gnu/dri/radeonsi_dri.so
   obj:/usr/lib/x86_64-linux-gnu/dri/radeonsi_dri.so
}
{
   16e65580669ed07525afb2ecd8f9bffb
   Memcheck:Leak
   match-leak-kinds: reachable
   fun:_Znwm
   obj:/usr/lib/x86_64-linux-gnu/libLLVM-11.so.1
   fun:_ZN4llvm12PassRegistry12registerPassERKNS_8PassInfoEb
   obj:/usr/lib/x86_64-linux-gnu/libLLVM-11.so.1
   fun:__pthread_once_slow
   fun:_ZN4llvm27initializeRegBankSelectPassERNS_12PassRegistryE
   fun:_ZN4llvm20initializeGlobalISelERNS_12PassRegistryE
   fun:LLVMInitializeAMDGPUTarget
   obj:/usr/lib/x86_64-linux-gnu/dri/radeonsi_dri.so
   fun:__pthread_once_slow
   obj:/usr/lib/x86_64-linux-gnu/dri/radeonsi_dri.so
   obj:/usr/lib/x86_64-linux-gnu/dri/radeonsi_dri.so
}
{
   7ebae44b11be311c78515094df6e9922
   Memcheck:Leak
   match-leak-kinds: reachable
   fun:_Znwm
   obj:/usr/lib/x86_64-linux-gnu/libLLVM-11.so.1
   fun:_ZN4llvm12PassRegistry12registerPassERKNS_8PassInfoEb
   obj:/usr/lib/x86_64-linux-gnu/libLLVM-11.so.1
   fun:__pthread_once_slow
   fun:_ZN4llvm35initializeRegUsageInfoCollectorPassERNS_12PassRegistryE
   fun:_ZN4llvm17initializeCodeGenERNS_12PassRegistryE
   fun:_ZN4llvm16TargetPassConfigC1ERNS_17LLVMTargetMachineERNS_6legacy15PassManagerBaseE
   obj:/usr/lib/x86_64-linux-gnu/libLLVM-11.so.1
   fun:_ZN4llvm17LLVMTargetMachine19addPassesToEmitFileERNS_6legacy15PassManagerBaseERNS_17raw_pwrite_streamEPS4_NS_15CodeGenFileTypeEbPNS_28MachineModuleInfoWrapperPassE
   obj:/usr/lib/x86_64-linux-gnu/dri/radeonsi_dri.so
   obj:/usr/lib/x86_64-linux-gnu/dri/radeonsi_dri.so
}
{
   dddab1a855a038452e1277084fd0aacf
   Memcheck:Leak
   match-leak-kinds: reachable
   fun:_Znwm
   obj:/usr/lib/x86_64-linux-gnu/libLLVM-11.so.1
   fun:__pthread_once_slow
   fun:_ZN4llvm35initializeDebugifyMachineModulePassERNS_12PassRegistryE
   fun:_ZN4llvm17initializeCodeGenERNS_12PassRegistryE
   fun:_ZN4llvm16TargetPassConfigC1ERNS_17LLVMTargetMachineERNS_6legacy15PassManagerBaseE
   obj:/usr/lib/x86_64-linux-gnu/libLLVM-11.so.1
   fun:_ZN4llvm17LLVMTargetMachine19addPassesToEmitFileERNS_6legacy15PassManagerBaseERNS_17raw_pwrite_streamEPS4_NS_15CodeGenFileTypeEbPNS_28MachineModuleInfoWrapperPassE
   obj:/usr/lib/x86_64-linux-gnu/dri/radeonsi_dri.so
   obj:/usr/lib/x86_64-linux-gnu/dri/radeonsi_dri.so
   obj:/usr/lib/x86_64-linux-gnu/dri/radeonsi_dri.so
   obj:/usr/lib/x86_64-linux-gnu/dri/radeonsi_dri.so
}
{
   1263513a424dfb8477bc606383864b3b
   Memcheck:Leak
   match-leak-kinds: reachable
   fun:malloc
   fun:add_to_global_resize
   fun:dl_open_worker
   fun:_dl_catch_exception
   fun:_dl_open
   fun:dlopen_doit
   fun:_dl_catch_exception
   fun:_dl_catch_error
   fun:_dlerror_run
   fun:dlopen@@GLIBC_2.2.5
   obj:*
   obj:*
}
{
   52b51eaafe9bfe9858b0beb2f2d69cb3
   Memcheck:Leak
   match-leak-kinds: reachable
   fun:_Znwm
   obj:/usr/lib/x86_64-linux-gnu/libLLVM-11.so.1
   fun:__pthread_once_slow
   obj:/usr/lib/x86_64-linux-gnu/libLLVM-11.so.1
   fun:_ZN4llvm14createSROAPassEv
   fun:LLVMAddScalarReplAggregatesPass
   obj:/usr/lib/x86_64-linux-gnu/dri/radeonsi_dri.so
   obj:/usr/lib/x86_64-linux-gnu/dri/radeonsi_dri.so
   obj:/usr/lib/x86_64-linux-gnu/dri/radeonsi_dri.so
   obj:/usr/lib/x86_64-linux-gnu/dri/radeonsi_dri.so
   obj:/usr/lib/x86_64-linux-gnu/dri/radeonsi_dri.so
   fun:start_thread
}
{
   be08fae729b8567bc7831ed49ab9bdd2
   Memcheck:Leak
   match-leak-kinds: reachable
   fun:_Znwm
   obj:/usr/lib/x86_64-linux-gnu/libLLVM-11.so.1
   fun:_ZN4llvm12PassRegistry12registerPassERKNS_8PassInfoEb
   obj:/usr/lib/x86_64-linux-gnu/libLLVM-11.so.1
   fun:__pthread_once_slow
   fun:_ZN4llvm29initializeLowerIntrinsicsPassERNS_12PassRegistryE
   fun:_ZN4llvm17initializeCodeGenERNS_12PassRegistryE
   fun:_ZN4llvm16TargetPassConfigC1ERNS_17LLVMTargetMachineERNS_6legacy15PassManagerBaseE
   obj:/usr/lib/x86_64-linux-gnu/libLLVM-11.so.1
   fun:_ZN4llvm17LLVMTargetMachine19addPassesToEmitFileERNS_6legacy15PassManagerBaseERNS_17raw_pwrite_streamEPS4_NS_15CodeGenFileTypeEbPNS_28MachineModuleInfoWrapperPassE
   obj:/usr/lib/x86_64-linux-gnu/dri/radeonsi_dri.so
   obj:/usr/lib/x86_64-linux-gnu/dri/radeonsi_dri.so
}
{
   59e251b560d1c80aa2d2e9a8ca5479c0
   Memcheck:Leak
   match-leak-kinds: reachable
   fun:_Znwm
   obj:/usr/lib/x86_64-linux-gnu/libLLVM-11.so.1
   fun:_ZNK4llvm17ManagedStaticBase21RegisterManagedStaticEPFPvvEPFvS1_E
   obj:/usr/lib/x86_64-linux-gnu/libLLVM-11.so.1
   fun:_ZNK4llvm17ManagedStaticBase21RegisterManagedStaticEPFPvvEPFvS1_E
   fun:_ZN4llvm2cl14OptionCategory16registerCategoryEv
   obj:/usr/lib/x86_64-linux-gnu/libLLVM-11.so.1
   fun:call_init.part.0
   fun:call_init
   fun:_dl_init
   fun:_dl_catch_exception
   fun:dl_open_worker
   fun:_dl_catch_exception
}
{
   b3fa4f480a1903b1a06d19c682efc136
   Memcheck:Leak
   match-leak-kinds: reachable
   fun:_Znwm
   obj:/usr/lib/x86_64-linux-gnu/libLLVM-11.so.1
   fun:_ZN4llvm12PassRegistry12registerPassERKNS_8PassInfoEb
   obj:/usr/lib/x86_64-linux-gnu/libLLVM-11.so.1
   fun:__pthread_once_slow
   obj:/usr/lib/x86_64-linux-gnu/libLLVM-11.so.1
   fun:_ZN4llvm24createStructurizeCFGPassEb
   obj:/usr/lib/x86_64-linux-gnu/libLLVM-11.so.1
   fun:_ZN4llvm16TargetPassConfig14addISelPrepareEv
   fun:_ZN4llvm16TargetPassConfig13addISelPassesEv
   fun:_ZN4llvm17LLVMTargetMachine19addPassesToEmitFileERNS_6legacy15PassManagerBaseERNS_17raw_pwrite_streamEPS4_NS_15CodeGenFileTypeEbPNS_28MachineModuleInfoWrapperPassE
   obj:/usr/lib/x86_64-linux-gnu/dri/radeonsi_dri.so
}
{
   67b63a69af11a833a390c534471336e0
   Memcheck:Leak
   match-leak-kinds: reachable
   fun:_Znwm
   obj:/usr/lib/x86_64-linux-gnu/libLLVM-11.so.1
   obj:/usr/lib/x86_64-linux-gnu/libLLVM-11.so.1
   obj:/usr/lib/x86_64-linux-gnu/libLLVM-11.so.1
   obj:/usr/lib/x86_64-linux-gnu/libLLVM-11.so.1
   fun:call_init.part.0
   fun:call_init
   fun:_dl_init
   fun:_dl_catch_exception
   fun:dl_open_worker
   fun:_dl_catch_exception
   fun:_dl_open
   fun:dlopen_doit
}
{
   9a35df536fd64fed18eb1c096eeb50a2
   Memcheck:Leak
   match-leak-kinds: reachable
   fun:_Znwm
   obj:/usr/lib/x86_64-linux-gnu/libLLVM-11.so.1
   fun:_ZN4llvm12PassRegistry12registerPassERKNS_8PassInfoEb
   obj:/usr/lib/x86_64-linux-gnu/libLLVM-11.so.1
   fun:__pthread_once_slow
   fun:_ZN4llvm30initializeStackMapLivenessPassERNS_12PassRegistryE
   fun:_ZN4llvm17initializeCodeGenERNS_12PassRegistryE
   fun:_ZN4llvm16TargetPassConfigC1ERNS_17LLVMTargetMachineERNS_6legacy15PassManagerBaseE
   obj:/usr/lib/x86_64-linux-gnu/libLLVM-11.so.1
   fun:_ZN4llvm17LLVMTargetMachine19addPassesToEmitFileERNS_6legacy15PassManagerBaseERNS_17raw_pwrite_streamEPS4_NS_15CodeGenFileTypeEbPNS_28MachineModuleInfoWrapperPassE
   obj:/usr/lib/x86_64-linux-gnu/dri/radeonsi_dri.so
   obj:/usr/lib/x86_64-linux-gnu/dri/radeonsi_dri.so
}
{
   1671bdba99d8751de8cca38a1892b304
   Memcheck:Leak
   match-leak-kinds: reachable
   fun:_Znwm
   obj:/usr/lib/x86_64-linux-gnu/libLLVM-11.so.1
   fun:_ZN4llvm12PassRegistry12registerPassERKNS_8PassInfoEb
   obj:/usr/lib/x86_64-linux-gnu/libLLVM-11.so.1
   fun:__pthread_once_slow
   fun:_ZN4llvm40initializeMachineBlockPlacementStatsPassERNS_12PassRegistryE
   fun:_ZN4llvm17initializeCodeGenERNS_12PassRegistryE
   fun:_ZN4llvm16TargetPassConfigC1ERNS_17LLVMTargetMachineERNS_6legacy15PassManagerBaseE
   obj:/usr/lib/x86_64-linux-gnu/libLLVM-11.so.1
   fun:_ZN4llvm17LLVMTargetMachine19addPassesToEmitFileERNS_6legacy15PassManagerBaseERNS_17raw_pwrite_streamEPS4_NS_15CodeGenFileTypeEbPNS_28MachineModuleInfoWrapperPassE
   obj:/usr/lib/x86_64-linux-gnu/dri/radeonsi_dri.so
   obj:/usr/lib/x86_64-linux-gnu/dri/radeonsi_dri.so
}
{
   5f00a68c274241cbf6053e44521f6c12
   Memcheck:Leak
   match-leak-kinds: reachable
   fun:_Znwm
   obj:/usr/lib/x86_64-linux-gnu/libLLVM-11.so.1
   fun:__pthread_once_slow
   fun:_ZN4llvm37initializeRegUsageInfoPropagationPassERNS_12PassRegistryE
   fun:_ZN4llvm17initializeCodeGenERNS_12PassRegistryE
   fun:_ZN4llvm16TargetPassConfigC1ERNS_17LLVMTargetMachineERNS_6legacy15PassManagerBaseE
   obj:/usr/lib/x86_64-linux-gnu/libLLVM-11.so.1
   fun:_ZN4llvm17LLVMTargetMachine19addPassesToEmitFileERNS_6legacy15PassManagerBaseERNS_17raw_pwrite_streamEPS4_NS_15CodeGenFileTypeEbPNS_28MachineModuleInfoWrapperPassE
   obj:/usr/lib/x86_64-linux-gnu/dri/radeonsi_dri.so
   obj:/usr/lib/x86_64-linux-gnu/dri/radeonsi_dri.so
   obj:/usr/lib/x86_64-linux-gnu/dri/radeonsi_dri.so
   obj:/usr/lib/x86_64-linux-gnu/dri/radeonsi_dri.so
}
{
   8a865096776062d77685d506b04cb61c
   Memcheck:Leak
   match-leak-kinds: reachable
   fun:malloc
   fun:strdup
   obj:/usr/lib/x86_64-linux-gnu/libfontconfig.so.1.12.0
   fun:FcFontSetList
   fun:FcFontList
   fun:_ZN19QFontconfigDatabase20populateFontDatabaseEv
   obj:/usr/lib/x86_64-linux-gnu/libQt6Gui.so.6.2.4
   fun:_ZN20QFontDatabasePrivate8findFontERK8QFontDefib
   fun:_ZN20QFontDatabasePrivate4loadEPK12QFontPrivatei
   fun:_ZNK12QFontPrivate15engineForScriptEi
   fun:_ZNK13QFontMetricsF7leadingEv
   obj:/usr/lib/x86_64-linux-gnu/libQt6Gui.so.6.2.4
}
{
   eec12ed3c20e72cb1b913086ee990812
   Memcheck:Leak
   match-leak-kinds: reachable
   fun:_Znwm
   obj:/usr/lib/x86_64-linux-gnu/libLLVM-11.so.1
   fun:_ZN4llvm12PassRegistry12registerPassERKNS_8PassInfoEb
   obj:/usr/lib/x86_64-linux-gnu/libLLVM-11.so.1
   fun:__pthread_once_slow
   fun:_ZN4llvm34initializeCallGraphWrapperPassPassERNS_12PassRegistryE
   obj:/usr/lib/x86_64-linux-gnu/libLLVM-11.so.1
   fun:__pthread_once_slow
   fun:_ZN4llvm34initializeGlobalsAAWrapperPassPassERNS_12PassRegistryE
   obj:/usr/lib/x86_64-linux-gnu/libLLVM-11.so.1
   fun:__pthread_once_slow
   fun:_ZN4llvm34initializeAAResultsWrapperPassPassERNS_12PassRegistryE
}
{
   0ba5b2a94b34d96c62e7ee2e4a8120ad
   Memcheck:Leak
   match-leak-kinds: reachable
   fun:_Znwm
   obj:/usr/lib/x86_64-linux-gnu/libLLVM-11.so.1
   fun:_ZN4llvm12PassRegistry12registerPassERKNS_8PassInfoEb
   obj:/usr/lib/x86_64-linux-gnu/libLLVM-11.so.1
   fun:__pthread_once_slow
   fun:_ZN4llvm28initializeDependenceInfoPassERNS_12PassRegistryE
   obj:/usr/lib/x86_64-linux-gnu/libLLVM-11.so.1
   fun:__pthread_once_slow
   fun:_ZN4llvm28initializeCodeGenerationPassERNS_12PassRegistryE
   fun:_ZN5polly21initializePollyPassesERN4llvm12PassRegistryE
   obj:/usr/lib/x86_64-linux-gnu/libLLVM-11.so.1
   fun:call_init.part.0
}
{
   8918304d15ecc8721c32fa4a17120743
   Memcheck:Leak
   match-leak-kinds: reachable
   fun:_Znwm
   obj:/usr/lib/x86_64-linux-gnu/libLLVM-11.so.1
   fun:__pthread_once_slow
   fun:_ZN4llvm31initializeBBSectionsPreparePassERNS_12PassRegistryE
   fun:_ZN4llvm17initializeCodeGenERNS_12PassRegistryE
   fun:_ZN4llvm16TargetPassConfigC1ERNS_17LLVMTargetMachineERNS_6legacy15PassManagerBaseE
   obj:/usr/lib/x86_64-linux-gnu/libLLVM-11.so.1
   fun:_ZN4llvm17LLVMTargetMachine19addPassesToEmitFileERNS_6legacy15PassManagerBaseERNS_17raw_pwrite_streamEPS4_NS_15CodeGenFileTypeEbPNS_28MachineModuleInfoWrapperPassE
   obj:/usr/lib/x86_64-linux-gnu/dri/radeonsi_dri.so
   obj:/usr/lib/x86_64-linux-gnu/dri/radeonsi_dri.so
   obj:/usr/lib/x86_64-linux-gnu/dri/radeonsi_dri.so
   obj:/usr/lib/x86_64-linux-gnu/dri/radeonsi_dri.so
}
{
   9e3290d0d9d2e3407e4e4478198202f3
   Memcheck:Leak
   match-leak-kinds: reachable
   fun:_Znwm
   obj:/usr/lib/x86_64-linux-gnu/libLLVM-11.so.1
   fun:__pthread_once_slow
   fun:_ZN4llvm29initializeMachineOutlinerPassERNS_12PassRegistryE
   fun:_ZN4llvm17initializeCodeGenERNS_12PassRegistryE
   fun:_ZN4llvm16TargetPassConfigC1ERNS_17LLVMTargetMachineERNS_6legacy15PassManagerBaseE
   obj:/usr/lib/x86_64-linux-gnu/libLLVM-11.so.1
   fun:_ZN4llvm17LLVMTargetMachine19addPassesToEmitFileERNS_6legacy15PassManagerBaseERNS_17raw_pwrite_streamEPS4_NS_15CodeGenFileTypeEbPNS_28MachineModuleInfoWrapperPassE
   obj:/usr/lib/x86_64-linux-gnu/dri/radeonsi_dri.so
   obj:/usr/lib/x86_64-linux-gnu/dri/radeonsi_dri.so
   obj:/usr/lib/x86_64-linux-gnu/dri/radeonsi_dri.so
   obj:/usr/lib/x86_64-linux-gnu/dri/radeonsi_dri.so
}
{
   18a40700870c1e101058d603892e9704
   Memcheck:Leak
   match-leak-kinds: reachable
   fun:_Znwm
   obj:/usr/lib/x86_64-linux-gnu/libLLVM-11.so.1
   fun:__pthread_once_slow
   fun:_ZN4llvm31initializeStackSlotColoringPassERNS_12PassRegistryE
   fun:_ZN4llvm17initializeCodeGenERNS_12PassRegistryE
   fun:_ZN4llvm16TargetPassConfigC1ERNS_17LLVMTargetMachineERNS_6legacy15PassManagerBaseE
   obj:/usr/lib/x86_64-linux-gnu/libLLVM-11.so.1
   fun:_ZN4llvm17LLVMTargetMachine19addPassesToEmitFileERNS_6legacy15PassManagerBaseERNS_17raw_pwrite_streamEPS4_NS_15CodeGenFileTypeEbPNS_28MachineModuleInfoWrapperPassE
   obj:/usr/lib/x86_64-linux-gnu/dri/radeonsi_dri.so
   obj:/usr/lib/x86_64-linux-gnu/dri/radeonsi_dri.so
   obj:/usr/lib/x86_64-linux-gnu/dri/radeonsi_dri.so
   obj:/usr/lib/x86_64-linux-gnu/dri/radeonsi_dri.so
}
{
   28408c1e2c383592a9240be793b68fa5
   Memcheck:Leak
   match-leak-kinds: reachable
   fun:_Znwm
   fun:_ZNSt6vectorINSt7__cxx1112basic_stringIcSt11char_traitsIcESaIcEEESaIS5_EE17_M_realloc_insertIJRKS5_EEEvN9__gnu_cxx17__normal_iteratorIPS5_S7_EEDpOT_
   obj:/usr/lib/x86_64-linux-gnu/libLLVM-11.so.1
   obj:/usr/lib/x86_64-linux-gnu/libLLVM-11.so.1
   obj:/usr/lib/x86_64-linux-gnu/libLLVM-11.so.1
   fun:call_init.part.0
   fun:call_init
   fun:_dl_init
   fun:_dl_catch_exception
   fun:dl_open_worker
   fun:_dl_catch_exception
   fun:_dl_open
   fun:dlopen_doit
}
{
   f8d590c41028387a253f76473105cfbb
   Memcheck:Leak
   match-leak-kinds: indirect
   fun:malloc
   fun:_ZN10QArrayData8allocateEPPS_xxxNS_16AllocationOptionE
   obj:/usr/lib/x86_64-linux-gnu/libQt6Core.so.6.2.4
   obj:/usr/lib/x86_64-linux-gnu/libQt6Core.so.6.2.4
   obj:/usr/lib/x86_64-linux-gnu/libQt6Core.so.6.2.4
   fun:_ZN4QDirC1ERK7QString
   fun:_ZN6Window14button2clickedEv
   fun:_ZN6Window18qt_static_metacallEP7QObjectN11QMetaObject4CallEiPPv
   obj:/usr/lib/x86_64-linux-gnu/libQt6Core.so.6.2.4
   fun:_ZN15QAbstractButton7clickedEb
   obj:/usr/lib/x86_64-linux-gnu/libQt6Widgets.so.6.2.4
   obj:/usr/lib/x86_64-linux-gnu/libQt6Widgets.so.6.2.4
}
{
   996e6984446f5967450bf4fb775b8cae
   Memcheck:Leak
   match-leak-kinds: reachable
   fun:_Znwm
   obj:/usr/lib/x86_64-linux-gnu/libLLVM-11.so.1
   fun:_ZN4llvm12PassRegistry12registerPassERKNS_8PassInfoEb
   obj:/usr/lib/x86_64-linux-gnu/libLLVM-11.so.1
   fun:__pthread_once_slow
   obj:/usr/lib/x86_64-linux-gnu/libLLVM-11.so.1
   fun:__pthread_once_slow
   fun:_ZN4llvm34initializeAAResultsWrapperPassPassERNS_12PassRegistryE
   obj:/usr/lib/x86_64-linux-gnu/libLLVM-11.so.1
   fun:__pthread_once_slow
   fun:_ZN4llvm32initializeScopInfoRegionPassPassERNS_12PassRegistryE
   obj:/usr/lib/x86_64-linux-gnu/libLLVM-11.so.1
}
{
   5966237daeb959fc1422dcc50472c935
   Memcheck:Leak
   match-leak-kinds: reachable
   fun:_Znwm
   obj:/usr/lib/x86_64-linux-gnu/libLLVM-11.so.1
   fun:_ZN4llvm12PassRegistry12registerPassERKNS_8PassInfoEb
   obj:/usr/lib/x86_64-linux-gnu/libLLVM-11.so.1
   fun:__pthread_once_slow
   obj:/usr/lib/x86_64-linux-gnu/libLLVM-11.so.1
   fun:LLVMInitializeAMDGPUTarget
   obj:/usr/lib/x86_64-linux-gnu/dri/radeonsi_dri.so
   fun:__pthread_once_slow
   obj:/usr/lib/x86_64-linux-gnu/dri/radeonsi_dri.so
   obj:/usr/lib/x86_64-linux-gnu/dri/radeonsi_dri.so
   obj:/usr/lib/x86_64-linux-gnu/dri/radeonsi_dri.so
}
{
   ad11f24807a0f44c89beba74d8cf1c5e
   Memcheck:Leak
   match-leak-kinds: reachable
   fun:_Znwm
   obj:/usr/lib/x86_64-linux-gnu/libLLVM-11.so.1
   fun:__pthread_once_slow
   fun:_ZN4llvm30initializeStackMapLivenessPassERNS_12PassRegistryE
   fun:_ZN4llvm17initializeCodeGenERNS_12PassRegistryE
   fun:_ZN4llvm16TargetPassConfigC1ERNS_17LLVMTargetMachineERNS_6legacy15PassManagerBaseE
   obj:/usr/lib/x86_64-linux-gnu/libLLVM-11.so.1
   fun:_ZN4llvm17LLVMTargetMachine19addPassesToEmitFileERNS_6legacy15PassManagerBaseERNS_17raw_pwrite_streamEPS4_NS_15CodeGenFileTypeEbPNS_28MachineModuleInfoWrapperPassE
   obj:/usr/lib/x86_64-linux-gnu/dri/radeonsi_dri.so
   obj:/usr/lib/x86_64-linux-gnu/dri/radeonsi_dri.so
   obj:/usr/lib/x86_64-linux-gnu/dri/radeonsi_dri.so
   obj:/usr/lib/x86_64-linux-gnu/dri/radeonsi_dri.so
}
{
   875bc47c167cae27b83be70efd012888
   Memcheck:Leak
   match-leak-kinds: reachable
   fun:_Znwm
   obj:/usr/lib/x86_64-linux-gnu/libLLVM-11.so.1
   fun:__pthread_once_slow
   fun:_ZN4llvm21createBarrierNoopPassEv
   obj:/usr/lib/x86_64-linux-gnu/dri/radeonsi_dri.so
   obj:/usr/lib/x86_64-linux-gnu/dri/radeonsi_dri.so
   obj:/usr/lib/x86_64-linux-gnu/dri/radeonsi_dri.so
   obj:/usr/lib/x86_64-linux-gnu/dri/radeonsi_dri.so
   obj:/usr/lib/x86_64-linux-gnu/dri/radeonsi_dri.so
   obj:/usr/lib/x86_64-linux-gnu/dri/radeonsi_dri.so
   fun:start_thread
   fun:clone
}
{
   485fa8cb733e326f4fe17e9ab68f4f53
   Memcheck:Leak
   match-leak-kinds: reachable
   fun:_Znwm
   obj:/usr/lib/x86_64-linux-gnu/libLLVM-11.so.1
   fun:__pthread_once_slow
   fun:_ZN4llvm27initializeForwardOpTreePassERNS_12PassRegistryE
   fun:_ZN5polly21initializePollyPassesERN4llvm12PassRegistryE
   obj:/usr/lib/x86_64-linux-gnu/libLLVM-11.so.1
   fun:call_init.part.0
   fun:call_init
   fun:_dl_init
   fun:_dl_catch_exception
   fun:dl_open_worker
   fun:_dl_catch_exception
   fun:_dl_open
}
{
   26c656de42232253fc9249492c5d9051
   Memcheck:Leak
   match-leak-kinds: reachable
   fun:_Znwm
   obj:/usr/lib/x86_64-linux-gnu/libLLVM-11.so.1
   fun:_ZN4llvm12PassRegistry12registerPassERKNS_8PassInfoEb
   obj:/usr/lib/x86_64-linux-gnu/libLLVM-11.so.1
   fun:__pthread_once_slow
   fun:_ZN4llvm26initializeJSONExporterPassERNS_12PassRegistryE
   fun:_ZN5polly21initializePollyPassesERN4llvm12PassRegistryE
   obj:/usr/lib/x86_64-linux-gnu/libLLVM-11.so.1
   fun:call_init.part.0
   fun:call_init
   fun:_dl_init
   fun:_dl_catch_exception
   fun:dl_open_worker
}
{
   7636147bf17b69499bc05ec46971ce91
   Memcheck:Leak
   match-leak-kinds: reachable
   fun:_Znwm
   obj:/usr/lib/x86_64-linux-gnu/libLLVM-11.so.1
   fun:__pthread_once_slow
   fun:_ZN4llvm35initializeGCMachineCodeAnalysisPassERNS_12PassRegistryE
   fun:_ZN4llvm17initializeCodeGenERNS_12PassRegistryE
   fun:_ZN4llvm16TargetPassConfigC1ERNS_17LLVMTargetMachineERNS_6legacy15PassManagerBaseE
   obj:/usr/lib/x86_64-linux-gnu/libLLVM-11.so.1
   fun:_ZN4llvm17LLVMTargetMachine19addPassesToEmitFileERNS_6legacy15PassManagerBaseERNS_17raw_pwrite_streamEPS4_NS_15CodeGenFileTypeEbPNS_28MachineModuleInfoWrapperPassE
   obj:/usr/lib/x86_64-linux-gnu/dri/radeonsi_dri.so
   obj:/usr/lib/x86_64-linux-gnu/dri/radeonsi_dri.so
   obj:/usr/lib/x86_64-linux-gnu/dri/radeonsi_dri.so
   obj:/usr/lib/x86_64-linux-gnu/dri/radeonsi_dri.so
}
{
   2839fd69f673b9ac9a3839190ac3484e
   Memcheck:Leak
   match-leak-kinds: reachable
   fun:_Znwm
   obj:/usr/lib/x86_64-linux-gnu/libLLVM-11.so.1
   fun:__pthread_once_slow
   fun:_ZN4llvm24initializeLiveStacksPassERNS_12PassRegistryE
   fun:_ZN4llvm17initializeCodeGenERNS_12PassRegistryE
   fun:_ZN4llvm16TargetPassConfigC1ERNS_17LLVMTargetMachineERNS_6legacy15PassManagerBaseE
   obj:/usr/lib/x86_64-linux-gnu/libLLVM-11.so.1
   fun:_ZN4llvm17LLVMTargetMachine19addPassesToEmitFileERNS_6legacy15PassManagerBaseERNS_17raw_pwrite_streamEPS4_NS_15CodeGenFileTypeEbPNS_28MachineModuleInfoWrapperPassE
   obj:/usr/lib/x86_64-linux-gnu/dri/radeonsi_dri.so
   obj:/usr/lib/x86_64-linux-gnu/dri/radeonsi_dri.so
   obj:/usr/lib/x86_64-linux-gnu/dri/radeonsi_dri.so
   obj:/usr/lib/x86_64-linux-gnu/dri/radeonsi_dri.so
}
{
   4488a2df3ebd0e02ede035af5d91d64b
   Memcheck:Leak
   match-leak-kinds: reachable
   fun:_Znwm
   obj:/usr/lib/x86_64-linux-gnu/libLLVM-11.so.1
   fun:__pthread_once_slow
   fun:_ZN4llvm23initializeLocalizerPassERNS_12PassRegistryE
   fun:_ZN4llvm20initializeGlobalISelERNS_12PassRegistryE
   fun:LLVMInitializeAMDGPUTarget
   obj:/usr/lib/x86_64-linux-gnu/dri/radeonsi_dri.so
   fun:__pthread_once_slow
   obj:/usr/lib/x86_64-linux-gnu/dri/radeonsi_dri.so
   obj:/usr/lib/x86_64-linux-gnu/dri/radeonsi_dri.so
   obj:/usr/lib/x86_64-linux-gnu/dri/radeonsi_dri.so
   obj:/usr/lib/x86_64-linux-gnu/dri/radeonsi_dri.so
}
{
   694d75ee3d7e2dd4134e631bfef0347b
   Memcheck:Leak
   match-leak-kinds: reachable
   fun:_Znwm
   obj:/usr/lib/x86_64-linux-gnu/libLLVM-11.so.1
   fun:_ZN4llvm12PassRegistry12registerPassERKNS_8PassInfoEb
   obj:/usr/lib/x86_64-linux-gnu/libLLVM-11.so.1
   fun:__pthread_once_slow
   fun:_ZN4llvm34initializePostMachineSchedulerPassERNS_12PassRegistryE
   fun:_ZN4llvm17initializeCodeGenERNS_12PassRegistryE
   fun:_ZN4llvm16TargetPassConfigC1ERNS_17LLVMTargetMachineERNS_6legacy15PassManagerBaseE
   obj:/usr/lib/x86_64-linux-gnu/libLLVM-11.so.1
   fun:_ZN4llvm17LLVMTargetMachine19addPassesToEmitFileERNS_6legacy15PassManagerBaseERNS_17raw_pwrite_streamEPS4_NS_15CodeGenFileTypeEbPNS_28MachineModuleInfoWrapperPassE
   obj:/usr/lib/x86_64-linux-gnu/dri/radeonsi_dri.so
   obj:/usr/lib/x86_64-linux-gnu/dri/radeonsi_dri.so
}
{
   9ff4627620bd720b2fe8b5f08813d855
   Memcheck:Leak
   match-leak-kinds: reachable
   fun:_Znwm
   obj:/usr/lib/x86_64-linux-gnu/libLLVM-11.so.1
   fun:__pthread_once_slow
   fun:_ZN4llvm26initializeAtomicExpandPassERNS_12PassRegistryE
   fun:_ZN4llvm17initializeCodeGenERNS_12PassRegistryE
   fun:_ZN4llvm16TargetPassConfigC1ERNS_17LLVMTargetMachineERNS_6legacy15PassManagerBaseE
   obj:/usr/lib/x86_64-linux-gnu/libLLVM-11.so.1
   fun:_ZN4llvm17LLVMTargetMachine19addPassesToEmitFileERNS_6legacy15PassManagerBaseERNS_17raw_pwrite_streamEPS4_NS_15CodeGenFileTypeEbPNS_28MachineModuleInfoWrapperPassE
   obj:/usr/lib/x86_64-linux-gnu/dri/radeonsi_dri.so
   obj:/usr/lib/x86_64-linux-gnu/dri/radeonsi_dri.so
   obj:/usr/lib/x86_64-linux-gnu/dri/radeonsi_dri.so
   obj:/usr/lib/x86_64-linux-gnu/dri/radeonsi_dri.so
}
{
   eb3c4211ef5a4e7e1af673cc61e2fb01
   Memcheck:Leak
   match-leak-kinds: reachable
   fun:_Znwm
   obj:/usr/lib/x86_64-linux-gnu/libLLVM-11.so.1
   fun:_ZN4llvm12PassRegistry12registerPassERKNS_8PassInfoEb
   obj:/usr/lib/x86_64-linux-gnu/libLLVM-11.so.1
   fun:__pthread_once_slow
   fun:_ZN4llvm31initializeSCEVAAWrapperPassPassERNS_12PassRegistryE
   obj:/usr/lib/x86_64-linux-gnu/libLLVM-11.so.1
   fun:__pthread_once_slow
   fun:_ZN4llvm34initializeAAResultsWrapperPassPassERNS_12PassRegistryE
   obj:/usr/lib/x86_64-linux-gnu/libLLVM-11.so.1
   fun:__pthread_once_slow
   fun:_ZN4llvm32initializeScopInfoRegionPassPassERNS_12PassRegistryE
}
{
   7370395d0f7229e5c3bcb67f8c3487b7
   Memcheck:Leak
   match-leak-kinds: reachable
   fun:_Znwm
   obj:/usr/lib/x86_64-linux-gnu/libLLVM-11.so.1
   fun:_ZN4llvm12PassRegistry12registerPassERKNS_8PassInfoEb
   obj:/usr/lib/x86_64-linux-gnu/libLLVM-11.so.1
   fun:__pthread_once_slow
   fun:_ZN4llvm22initializeSimplifyPassERNS_12PassRegistryE
   fun:_ZN5polly21initializePollyPassesERN4llvm12PassRegistryE
   obj:/usr/lib/x86_64-linux-gnu/libLLVM-11.so.1
   fun:call_init.part.0
   fun:call_init
   fun:_dl_init
   fun:_dl_catch_exception
   fun:dl_open_worker
}
{
   4afdf4638d0b16a9c821b4acba58bfe8
   Memcheck:Leak
   match-leak-kinds: reachable
   fun:calloc
   fun:_dl_new_object
   fun:_dl_map_object_from_fd
   fun:_dl_map_object
   fun:openaux
   fun:_dl_catch_exception
   fun:_dl_map_object_deps
   fun:dl_open_worker
   fun:_dl_catch_exception
   fun:_dl_open
   fun:dlopen_doit
   fun:_dl_catch_exception
}
{
   c69a9de5e8ddab83a84a4185c191ff81
   Memcheck:Leak
   match-leak-kinds: reachable
   fun:malloc
   fun:_ZN6icu_677UMemorynwEm
   fun:_ZN6icu_6713Norm2AllModes14createInstanceEPNS_15Normalizer2ImplER10UErrorCode
   fun:_ZN6icu_6713Norm2AllModes14getNFCInstanceER10UErrorCode
   fun:_ZN6icu_6718Normalizer2Factory10getNFCImplER10UErrorCode
   fun:_ZN6icu_6718CollationTailoring15ensureOwnedDataER10UErrorCode
   fun:_ZN6icu_6719CollationDataReader4readEPKNS_18CollationTailoringEPKhiRS1_R10UErrorCode
   fun:_ZN6icu_6713CollationRoot4loadER10UErrorCode
   fun:_ZN6icu_6713CollationRoot17getRootCacheEntryER10UErrorCode
   fun:_ZN6icu_6715CollationLoader13loadTailoringERKNS_6LocaleER10UErrorCode
   fun:_ZN6icu_678Collator12makeInstanceERKNS_6LocaleER10UErrorCode
   fun:_ZN6icu_678Collator14createInstanceERKNS_6LocaleER10UErrorCode
}
{
   08a6fc9bde7cd4c0ea795619a97fda4d
   Memcheck:Leak
   match-leak-kinds: reachable
   fun:_Znwm
   obj:/usr/lib/x86_64-linux-gnu/libLLVM-11.so.1
   fun:_ZN4llvm12PassRegistry12registerPassERKNS_8PassInfoEb
   obj:/usr/lib/x86_64-linux-gnu/libLLVM-11.so.1
   fun:__pthread_once_slow
   fun:_ZN4llvm39initializePhysicalRegisterUsageInfoPassERNS_12PassRegistryE
   obj:/usr/lib/x86_64-linux-gnu/libLLVM-11.so.1
   fun:__pthread_once_slow
   fun:_ZN4llvm35initializeRegUsageInfoCollectorPassERNS_12PassRegistryE
   fun:_ZN4llvm17initializeCodeGenERNS_12PassRegistryE
   fun:_ZN4llvm16TargetPassConfigC1ERNS_17LLVMTargetMachineERNS_6legacy15PassManagerBaseE
   obj:/usr/lib/x86_64-linux-gnu/libLLVM-11.so.1
}
{
   55a6805f66d89dfaa417358e39ac3107
   Memcheck:Leak
   match-leak-kinds: reachable
   fun:_Znwm
   obj:/usr/lib/x86_64-linux-gnu/libLLVM-11.so.1
   fun:__pthread_once_slow
   fun:_ZN4llvm26initializeLoopSimplifyPassERNS_12PassRegistryE
   fun:_ZN4llvm22initializeLoopPassPassERNS_12PassRegistryE
   obj:/usr/lib/x86_64-linux-gnu/libLLVM-11.so.1
   fun:__pthread_once_slow
   fun:_ZN4llvm14createLICMPassEv
   fun:LLVMAddLICMPass
   obj:/usr/lib/x86_64-linux-gnu/dri/radeonsi_dri.so
   obj:/usr/lib/x86_64-linux-gnu/dri/radeonsi_dri.so
   obj:/usr/lib/x86_64-linux-gnu/dri/radeonsi_dri.so
}
{
   9bba8da86cb44e057925f65543f0cff0
   Memcheck:Leak
   match-leak-kinds: reachable
   fun:_Znwm
   obj:/usr/lib/x86_64-linux-gnu/libLLVM-11.so.1
   fun:__pthread_once_slow
   fun:_ZN4llvm30initializeTargetPassConfigPassERNS_12PassRegistryE
   obj:/usr/lib/x86_64-linux-gnu/libLLVM-11.so.1
   fun:__pthread_once_slow
   fun:_ZN4llvm26initializeIRTranslatorPassERNS_12PassRegistryE
   fun:_ZN4llvm20initializeGlobalISelERNS_12PassRegistryE
   fun:LLVMInitializeAMDGPUTarget
   obj:/usr/lib/x86_64-linux-gnu/dri/radeonsi_dri.so
   fun:__pthread_once_slow
   obj:/usr/lib/x86_64-linux-gnu/dri/radeonsi_dri.so
}
{
   0a3b0e699db4c4f133b28e5e421933c2
   Memcheck:Leak
   match-leak-kinds: reachable
   fun:_Znwm
   obj:/usr/lib/x86_64-linux-gnu/libLLVM-11.so.1
   fun:__pthread_once_slow
   fun:_ZN4llvm30initializeMIRCanonicalizerPassERNS_12PassRegistryE
   fun:_ZN4llvm17initializeCodeGenERNS_12PassRegistryE
   fun:_ZN4llvm16TargetPassConfigC1ERNS_17LLVMTargetMachineERNS_6legacy15PassManagerBaseE
   obj:/usr/lib/x86_64-linux-gnu/libLLVM-11.so.1
   fun:_ZN4llvm17LLVMTargetMachine19addPassesToEmitFileERNS_6legacy15PassManagerBaseERNS_17raw_pwrite_streamEPS4_NS_15CodeGenFileTypeEbPNS_28MachineModuleInfoWrapperPassE
   obj:/usr/lib/x86_64-linux-gnu/dri/radeonsi_dri.so
   obj:/usr/lib/x86_64-linux-gnu/dri/radeonsi_dri.so
   obj:/usr/lib/x86_64-linux-gnu/dri/radeonsi_dri.so
   obj:/usr/lib/x86_64-linux-gnu/dri/radeonsi_dri.so
}
{
   3d00db206aef3343ad5a66ebf1e1a2a4
   Memcheck:Leak
   match-leak-kinds: reachable
   fun:malloc
   fun:g_malloc
   fun:g_slice_alloc
   obj:/usr/lib/x86_64-linux-gnu/libglib-2.0.so.0.6600.8
   fun:g_main_context_new
   fun:g_main_context_default
   fun:g_main_context_push_thread_default
   fun:_ZN27QEventDispatcherGlibPrivateC1EP13_GMainContext
   fun:_ZN20QEventDispatcherGlibC1EP7QObject
   obj:/usr/lib/x86_64-linux-gnu/libQt6Core.so.6.2.4
   obj:/usr/lib/x86_64-linux-gnu/libQt6Core.so.6.2.4
   obj:/usr/lib/x86_64-linux-gnu/libQt6Core.so.6.2.4
}
{
   0c6913cd5e438461aa4201fa524c549c
   Memcheck:Leak
   match-leak-kinds: reachable
   fun:malloc
   fun:g_malloc
   obj:/usr/lib/x86_64-linux-gnu/libglib-2.0.so.0.6600.8
   fun:call_init.part.0
   fun:call_init
   fun:_dl_init
   obj:/usr/lib/x86_64-linux-gnu/ld-2.31.so
}
{
   5d17bee2e5c5565b4d75beade61c9a20
   Memcheck:Leak
   match-leak-kinds: definite
   fun:_Znwm
   fun:_ZN6Window16createScreenshotEv
   fun:_ZN6Window18qt_static_metacallEP7QObjectN11QMetaObject4CallEiPPv
   obj:/usr/lib/x86_64-linux-gnu/libQt6Core.so.6.2.4
   obj:/usr/lib/x86_64-linux-gnu/libQt6Widgets.so.6.2.4
   obj:/usr/lib/x86_64-linux-gnu/libQt6Widgets.so.6.2.4
   fun:_ZN15QAbstractButton17mouseReleaseEventEP11QMouseEvent
   fun:_ZN7QWidget5eventEP6QEvent
   fun:_ZN19QApplicationPrivate13notify_helperEP7QObjectP6QEvent
   fun:_ZN12QApplication6notifyEP7QObjectP6QEvent
   fun:_ZN16QCoreApplication15notifyInternal2EP7QObjectP6QEvent
   fun:_ZN19QApplicationPrivate14sendMouseEventEP7QWidgetP11QMouseEventS1_S1_PS1_R8QPointerIS0_Ebb
}
{
   da1bb42cd6b7a6ef66a5c921049cd3c4
   Memcheck:Leak
   match-leak-kinds: reachable
   fun:malloc
   obj:/usr/lib/x86_64-linux-gnu/libdbus-1.so.3.19.13
   obj:/usr/lib/x86_64-linux-gnu/libdbus-1.so.3.19.13
   fun:_dbus_message_loader_queue_messages
   obj:/usr/lib/x86_64-linux-gnu/libdbus-1.so.3.19.13
   obj:/usr/lib/x86_64-linux-gnu/libdbus-1.so.3.19.13
   obj:/usr/lib/x86_64-linux-gnu/libdbus-1.so.3.19.13
   obj:/usr/lib/x86_64-linux-gnu/libdbus-1.so.3.19.13
   obj:/usr/lib/x86_64-linux-gnu/libdbus-1.so.3.19.13
   obj:/usr/lib/x86_64-linux-gnu/libdbus-1.so.3.19.13
   obj:/usr/lib/x86_64-linux-gnu/libdbus-1.so.3.19.13
   fun:dbus_connection_send_with_reply_and_block
}
{
   16f236892ed43cf99df53580e67cb281
   Memcheck:Leak
   match-leak-kinds: reachable
   fun:_Znwm
   obj:/usr/lib/x86_64-linux-gnu/libLLVM-11.so.1
   fun:_ZN4llvm12PassRegistry12registerPassERKNS_8PassInfoEb
   obj:/usr/lib/x86_64-linux-gnu/libLLVM-11.so.1
   fun:__pthread_once_slow
   fun:_ZN4llvm17initializePEIPassERNS_12PassRegistryE
   fun:_ZN4llvm17initializeCodeGenERNS_12PassRegistryE
   fun:_ZN4llvm16TargetPassConfigC1ERNS_17LLVMTargetMachineERNS_6legacy15PassManagerBaseE
   obj:/usr/lib/x86_64-linux-gnu/libLLVM-11.so.1
   fun:_ZN4llvm17LLVMTargetMachine19addPassesToEmitFileERNS_6legacy15PassManagerBaseERNS_17raw_pwrite_streamEPS4_NS_15CodeGenFileTypeEbPNS_28MachineModuleInfoWrapperPassE
   obj:/usr/lib/x86_64-linux-gnu/dri/radeonsi_dri.so
   obj:/usr/lib/x86_64-linux-gnu/dri/radeonsi_dri.so
}
{
   ead0b5a1b95a710e1ac56f35c9305590
   Memcheck:Leak
   match-leak-kinds: reachable
   fun:_Znwm
   obj:/usr/lib/x86_64-linux-gnu/libLLVM-11.so.1
   fun:__pthread_once_slow
   fun:_ZN4llvm27initializeWasmEHPreparePassERNS_12PassRegistryE
   fun:_ZN4llvm17initializeCodeGenERNS_12PassRegistryE
   fun:_ZN4llvm16TargetPassConfigC1ERNS_17LLVMTargetMachineERNS_6legacy15PassManagerBaseE
   obj:/usr/lib/x86_64-linux-gnu/libLLVM-11.so.1
   fun:_ZN4llvm17LLVMTargetMachine19addPassesToEmitFileERNS_6legacy15PassManagerBaseERNS_17raw_pwrite_streamEPS4_NS_15CodeGenFileTypeEbPNS_28MachineModuleInfoWrapperPassE
   obj:/usr/lib/x86_64-linux-gnu/dri/radeonsi_dri.so
   obj:/usr/lib/x86_64-linux-gnu/dri/radeonsi_dri.so
   obj:/usr/lib/x86_64-linux-gnu/dri/radeonsi_dri.so
   obj:/usr/lib/x86_64-linux-gnu/dri/radeonsi_dri.so
}
{
   3d583ddeafe0b5abfbfa1bdbb0309d10
   Memcheck:Leak
   match-leak-kinds: reachable
   fun:malloc
   obj:/usr/lib/x86_64-linux-gnu/libX11.so.6.4.0
   obj:/usr/lib/x86_64-linux-gnu/libX11.so.6.4.0
   obj:/usr/lib/x86_64-linux-gnu/libX11.so.6.4.0
   fun:_XlcCreateLocaleDataBase
   obj:/usr/lib/x86_64-linux-gnu/libX11.so.6.4.0
   obj:/usr/lib/x86_64-linux-gnu/libX11.so.6.4.0
   fun:_XlcCreateLC
   fun:_XlcUtf8Loader
   fun:_XOpenLC
   fun:XmbTextListToTextProperty
   fun:_ZN10QXcbWindow14setWindowTitleEPK14QXcbConnectionjRK7QString
}
{
   b63788ecb021360670b58dbb3981fe3c
   Memcheck:Leak
   match-leak-kinds: reachable
   fun:malloc
   fun:_XlcCreateDefaultCharSet
   fun:_XlcAddCT
   fun:_XlcInitCTInfo
   obj:/usr/lib/x86_64-linux-gnu/libX11.so.6.4.0
   obj:/usr/lib/x86_64-linux-gnu/libX11.so.6.4.0
   fun:_XlcCreateLC
   fun:_XlcUtf8Loader
   fun:_XOpenLC
   fun:XmbTextListToTextProperty
   fun:_ZN10QXcbWindow14setWindowTitleEPK14QXcbConnectionjRK7QString
   fun:_ZN14QXcbConnection19getQtSelectionOwnerEv
}
{
   3253a7beee0dcf2344b8f83452b7934a
   Memcheck:Leak
   match-leak-kinds: reachable
   fun:_Znwm
   obj:/usr/lib/x86_64-linux-gnu/libLLVM-11.so.1
   fun:_ZN4llvm12PassRegistry12registerPassERKNS_8PassInfoEb
   obj:/usr/lib/x86_64-linux-gnu/libLLVM-11.so.1
   fun:__pthread_once_slow
   fun:_ZN4llvm28initializePHIEliminationPassERNS_12PassRegistryE
   fun:_ZN4llvm17initializeCodeGenERNS_12PassRegistryE
   fun:_ZN4llvm16TargetPassConfigC1ERNS_17LLVMTargetMachineERNS_6legacy15PassManagerBaseE
   obj:/usr/lib/x86_64-linux-gnu/libLLVM-11.so.1
   fun:_ZN4llvm17LLVMTargetMachine19addPassesToEmitFileERNS_6legacy15PassManagerBaseERNS_17raw_pwrite_streamEPS4_NS_15CodeGenFileTypeEbPNS_28MachineModuleInfoWrapperPassE
   obj:/usr/lib/x86_64-linux-gnu/dri/radeonsi_dri.so
   obj:/usr/lib/x86_64-linux-gnu/dri/radeonsi_dri.so
}
{
   76914a39f2d56d12a3e308a664b66a1d
   Memcheck:Leak
   match-leak-kinds: reachable
   fun:_Znwm
   obj:/usr/lib/x86_64-linux-gnu/libLLVM-11.so.1
   fun:__pthread_once_slow
   fun:_ZN4llvm29initializeMachineCombinerPassERNS_12PassRegistryE
   fun:_ZN4llvm17initializeCodeGenERNS_12PassRegistryE
   fun:_ZN4llvm16TargetPassConfigC1ERNS_17LLVMTargetMachineERNS_6legacy15PassManagerBaseE
   obj:/usr/lib/x86_64-linux-gnu/libLLVM-11.so.1
   fun:_ZN4llvm17LLVMTargetMachine19addPassesToEmitFileERNS_6legacy15PassManagerBaseERNS_17raw_pwrite_streamEPS4_NS_15CodeGenFileTypeEbPNS_28MachineModuleInfoWrapperPassE
   obj:/usr/lib/x86_64-linux-gnu/dri/radeonsi_dri.so
   obj:/usr/lib/x86_64-linux-gnu/dri/radeonsi_dri.so
   obj:/usr/lib/x86_64-linux-gnu/dri/radeonsi_dri.so
   obj:/usr/lib/x86_64-linux-gnu/dri/radeonsi_dri.so
}
{
   8b49b4c577b3bb1f2a570f39ed924eb6
   Memcheck:Leak
   match-leak-kinds: reachable
   fun:_Znwm
   obj:/usr/lib/x86_64-linux-gnu/libLLVM-11.so.1
   fun:_ZN4llvm12PassRegistry12registerPassERKNS_8PassInfoEb
   obj:/usr/lib/x86_64-linux-gnu/libLLVM-11.so.1
   fun:__pthread_once_slow
   fun:_ZN4llvm35initializeMachineBlockPlacementPassERNS_12PassRegistryE
   fun:_ZN4llvm17initializeCodeGenERNS_12PassRegistryE
   fun:_ZN4llvm16TargetPassConfigC1ERNS_17LLVMTargetMachineERNS_6legacy15PassManagerBaseE
   obj:/usr/lib/x86_64-linux-gnu/libLLVM-11.so.1
   fun:_ZN4llvm17LLVMTargetMachine19addPassesToEmitFileERNS_6legacy15PassManagerBaseERNS_17raw_pwrite_streamEPS4_NS_15CodeGenFileTypeEbPNS_28MachineModuleInfoWrapperPassE
   obj:/usr/lib/x86_64-linux-gnu/dri/radeonsi_dri.so
   obj:/usr/lib/x86_64-linux-gnu/dri/radeonsi_dri.so
}
{
   f1b986386defeb651ef5fbb1d66c8134
   Memcheck:Leak
   match-leak-kinds: reachable
   fun:_Znwm
   obj:/usr/lib/x86_64-linux-gnu/libLLVM-11.so.1
   fun:_ZN4llvm12PassRegistry12registerPassERKNS_8PassInfoEb
   obj:/usr/lib/x86_64-linux-gnu/libLLVM-11.so.1
   fun:__pthread_once_slow
   fun:_ZN4llvm18createEarlyCSEPassEb
   fun:LLVMAddEarlyCSEMemSSAPass
   obj:/usr/lib/x86_64-linux-gnu/dri/radeonsi_dri.so
   obj:/usr/lib/x86_64-linux-gnu/dri/radeonsi_dri.so
   obj:/usr/lib/x86_64-linux-gnu/dri/radeonsi_dri.so
   obj:/usr/lib/x86_64-linux-gnu/dri/radeonsi_dri.so
   obj:/usr/lib/x86_64-linux-gnu/dri/radeonsi_dri.so
}
{
   315cc8a98f9c413e29e6673eef9fc1f9
   Memcheck:Leak
   match-leak-kinds: reachable
   fun:malloc
   obj:/usr/lib/x86_64-linux-gnu/libglib-2.0.so.0.6600.8
   fun:g_private_get
   fun:g_main_context_dispatch
   obj:/usr/lib/x86_64-linux-gnu/libglib-2.0.so.0.6600.8
   fun:g_main_context_iteration
   fun:_ZN20QEventDispatcherGlib13processEventsE6QFlagsIN10QEventLoop17ProcessEventsFlagEE
   fun:_ZN10QEventLoop4execE6QFlagsINS_17ProcessEventsFlagEE
   fun:_ZN7QThread4execEv
   obj:/usr/lib/x86_64-linux-gnu/libQt6DBus.so.6.2.4
   obj:/usr/lib/x86_64-linux-gnu/libQt6Core.so.6.2.4
   fun:start_thread
}
{
   538bc0b8fd626ebc973aee0a3754f177
   Memcheck:Leak
   match-leak-kinds: reachable
   fun:_Znwm
   obj:/usr/lib/x86_64-linux-gnu/libLLVM-11.so.1
   fun:_ZN4llvm12PassRegistry12registerPassERKNS_8PassInfoEb
   obj:/usr/lib/x86_64-linux-gnu/libLLVM-11.so.1
   fun:__pthread_once_slow
   fun:_ZN4llvm31initializeInterleavedAccessPassERNS_12PassRegistryE
   fun:_ZN4llvm17initializeCodeGenERNS_12PassRegistryE
   fun:_ZN4llvm16TargetPassConfigC1ERNS_17LLVMTargetMachineERNS_6legacy15PassManagerBaseE
   obj:/usr/lib/x86_64-linux-gnu/libLLVM-11.so.1
   fun:_ZN4llvm17LLVMTargetMachine19addPassesToEmitFileERNS_6legacy15PassManagerBaseERNS_17raw_pwrite_streamEPS4_NS_15CodeGenFileTypeEbPNS_28MachineModuleInfoWrapperPassE
   obj:/usr/lib/x86_64-linux-gnu/dri/radeonsi_dri.so
   obj:/usr/lib/x86_64-linux-gnu/dri/radeonsi_dri.so
}
{
   a1a2e5bedc38e337982fd51e7631b715
   Memcheck:Leak
   match-leak-kinds: reachable
   fun:_Znwm
   obj:/usr/lib/x86_64-linux-gnu/libLLVM-11.so.1
   fun:_ZN4llvm12PassRegistry12registerPassERKNS_8PassInfoEb
   obj:/usr/lib/x86_64-linux-gnu/libLLVM-11.so.1
   fun:__pthread_once_slow
   fun:_ZN4llvm36createStraightLineStrengthReducePassEv
   obj:/usr/lib/x86_64-linux-gnu/libLLVM-11.so.1
   fun:_ZN4llvm16TargetPassConfig13addISelPassesEv
   fun:_ZN4llvm17LLVMTargetMachine19addPassesToEmitFileERNS_6legacy15PassManagerBaseERNS_17raw_pwrite_streamEPS4_NS_15CodeGenFileTypeEbPNS_28MachineModuleInfoWrapperPassE
   obj:/usr/lib/x86_64-linux-gnu/dri/radeonsi_dri.so
   obj:/usr/lib/x86_64-linux-gnu/dri/radeonsi_dri.so
   obj:/usr/lib/x86_64-linux-gnu/dri/radeonsi_dri.so
}
{
   ad111679593ed78ccd544468e7cfefc8
   Memcheck:Leak
   match-leak-kinds: reachable
   fun:realloc
   obj:/usr/lib/x86_64-linux-gnu/libdbus-1.so.3.19.13
   obj:/usr/lib/x86_64-linux-gnu/libdbus-1.so.3.19.13
   obj:/usr/lib/x86_64-linux-gnu/libdbus-1.so.3.19.13
   fun:_dbus_type_writer_recurse
   obj:/usr/lib/x86_64-linux-gnu/libdbus-1.so.3.19.13
   fun:_dbus_header_set_field_basic
   fun:dbus_message_set_reply_serial
   fun:dbus_message_new_error
   obj:/usr/lib/x86_64-linux-gnu/libdbus-1.so.3.19.13
   fun:dbus_connection_send_with_reply
   fun:dbus_connection_send_with_reply_and_block
}
{
   e79c3654e5707d9a8bc85b1f53d9f56d
   Memcheck:Leak
   match-leak-kinds: reachable
   fun:_Znwm
   obj:/usr/lib/x86_64-linux-gnu/libLLVM-11.so.1
   fun:_ZN4llvm12PassRegistry12registerPassERKNS_8PassInfoEb
   obj:/usr/lib/x86_64-linux-gnu/libLLVM-11.so.1
   fun:__pthread_once_slow
   fun:_ZN4llvm48initializePreISelIntrinsicLoweringLegacyPassPassERNS_12PassRegistryE
   fun:_ZN4llvm17initializeCodeGenERNS_12PassRegistryE
   fun:_ZN4llvm16TargetPassConfigC1ERNS_17LLVMTargetMachineERNS_6legacy15PassManagerBaseE
   obj:/usr/lib/x86_64-linux-gnu/libLLVM-11.so.1
   fun:_ZN4llvm17LLVMTargetMachine19addPassesToEmitFileERNS_6legacy15PassManagerBaseERNS_17raw_pwrite_streamEPS4_NS_15CodeGenFileTypeEbPNS_28MachineModuleInfoWrapperPassE
   obj:/usr/lib/x86_64-linux-gnu/dri/radeonsi_dri.so
   obj:/usr/lib/x86_64-linux-gnu/dri/radeonsi_dri.so
}
{
   e1101e10e812365b6784476b2b1e4008
   Memcheck:Leak
   match-leak-kinds: reachable
   fun:malloc
   fun:_ZN6icu_677UMemorynwEm
   fun:_ZN6icu_6712UnifiedCache11getInstanceER10UErrorCode
   fun:_ZN6icu_6715CollationLoaderC1EPKNS_19CollationCacheEntryERKNS_6LocaleER10UErrorCode
   fun:_ZN6icu_6715CollationLoader13loadTailoringERKNS_6LocaleER10UErrorCode
   fun:_ZN6icu_678Collator12makeInstanceERKNS_6LocaleER10UErrorCode
   fun:_ZN6icu_678Collator14createInstanceERKNS_6LocaleER10UErrorCode
   fun:ucol_open_67
   obj:/usr/lib/x86_64-linux-gnu/libQt6Core.so.6.2.4
   fun:_ZN23QFileSystemModelPrivate12sortChildrenEiRK11QModelIndex
   fun:_ZN16QFileSystemModel4sortEiN2Qt9SortOrderE
   fun:_ZN7QObject5eventEP6QEvent
}
{
   e7c50f944a2578fff5d47e7cc14141ba
   Memcheck:Leak
   match-leak-kinds: reachable
   fun:_Znwm
   obj:/usr/lib/x86_64-linux-gnu/libLLVM-11.so.1
   fun:__pthread_once_slow
   fun:_ZN4llvm22initializeSimplifyPassERNS_12PassRegistryE
   fun:_ZN5polly21initializePollyPassesERN4llvm12PassRegistryE
   obj:/usr/lib/x86_64-linux-gnu/libLLVM-11.so.1
   fun:call_init.part.0
   fun:call_init
   fun:_dl_init
   fun:_dl_catch_exception
   fun:dl_open_worker
   fun:_dl_catch_exception
   fun:_dl_open
}
{
   0336698cc3fd2e6391a6e458a6c8ce64
   Memcheck:Leak
   match-leak-kinds: reachable
   fun:_Znwm
   obj:/usr/lib/x86_64-linux-gnu/libLLVM-11.so.1
   fun:__pthread_once_slow
   fun:_ZN4llvm28initializeRegionInfoPassPassERNS_12PassRegistryE
   obj:/usr/lib/x86_64-linux-gnu/libLLVM-11.so.1
   fun:__pthread_once_slow
   fun:_ZN4llvm32initializeScopInfoRegionPassPassERNS_12PassRegistryE
   obj:/usr/lib/x86_64-linux-gnu/libLLVM-11.so.1
   fun:__pthread_once_slow
   fun:_ZN4llvm28initializeDependenceInfoPassERNS_12PassRegistryE
   obj:/usr/lib/x86_64-linux-gnu/libLLVM-11.so.1
   fun:__pthread_once_slow
}
{
   cce182c79169932924ab8692b10e87f5
   Memcheck:Leak
   match-leak-kinds: reachable
   fun:malloc
   fun:_dbus_register_shutdown_func
   obj:/usr/lib/x86_64-linux-gnu/libdbus-1.so.3.19.13
   obj:/usr/lib/x86_64-linux-gnu/libQt6DBus.so.6.2.4
   fun:_ZN7QObject5eventEP6QEvent
   fun:_ZN16QCoreApplication15notifyInternal2EP7QObjectP6QEvent
   fun:_ZN23QCoreApplicationPrivate16sendPostedEventsEP7QObjectiP11QThreadData
   obj:/usr/lib/x86_64-linux-gnu/libQt6Core.so.6.2.4
   fun:g_main_context_dispatch
   obj:/usr/lib/x86_64-linux-gnu/libglib-2.0.so.0.6600.8
   fun:g_main_context_iteration
   fun:_ZN20QEventDispatcherGlib13processEventsE6QFlagsIN10QEventLoop17ProcessEventsFlagEE
}
{
   5237ec5b6e11a6102c8e8bbfbe1a6118
   Memcheck:Leak
   match-leak-kinds: reachable
   fun:malloc
   obj:/usr/lib/x86_64-linux-gnu/libicuuc.so.67.1
   fun:uhash_open_67
   fun:_ZN6icu_6727locale_set_default_internalEPKcR10UErrorCode
   fun:_ZN6icu_676Locale10getDefaultEv
   fun:_ZN6icu_676Locale4initEPKca
   fun:_ZN6icu_676LocaleC1Ev
   obj:/usr/lib/x86_64-linux-gnu/libicuuc.so.67.1
   fun:_ZN6icu_676Locale14getLocaleCacheEv
   fun:_ZN6icu_676Locale9getLocaleEi
   fun:_ZN6icu_6713CollationRoot4loadER10UErrorCode
   fun:_ZN6icu_6713CollationRoot17getRootCacheEntryER10UErrorCode
}
{
   fc31dac29fdaf000ea97d2ef9cbc950d
   Memcheck:Leak
   match-leak-kinds: reachable
   fun:_Znwm
   obj:/usr/lib/x86_64-linux-gnu/libLLVM-11.so.1
   fun:_ZN4llvm12PassRegistry12registerPassERKNS_8PassInfoEb
   obj:/usr/lib/x86_64-linux-gnu/libLLVM-11.so.1
   fun:__pthread_once_slow
   fun:_ZN4llvm26createExpandReductionsPassEv
   fun:_ZN4llvm16TargetPassConfig11addIRPassesEv
   obj:/usr/lib/x86_64-linux-gnu/libLLVM-11.so.1
   fun:_ZN4llvm16TargetPassConfig13addISelPassesEv
   fun:_ZN4llvm17LLVMTargetMachine19addPassesToEmitFileERNS_6legacy15PassManagerBaseERNS_17raw_pwrite_streamEPS4_NS_15CodeGenFileTypeEbPNS_28MachineModuleInfoWrapperPassE
   obj:/usr/lib/x86_64-linux-gnu/dri/radeonsi_dri.so
   obj:/usr/lib/x86_64-linux-gnu/dri/radeonsi_dri.so
}
{
   c438649038b496edf175e9dd64e4dfaa
   Memcheck:Leak
   match-leak-kinds: reachable
   fun:_Znwm
   obj:/usr/lib/x86_64-linux-gnu/libLLVM-11.so.1
   fun:__pthread_once_slow
   fun:_ZN4llvm36initializeCFLSteensAAWrapperPassPassERNS_12PassRegistryE
   obj:/usr/lib/x86_64-linux-gnu/libLLVM-11.so.1
   fun:__pthread_once_slow
   fun:_ZN4llvm34initializeAAResultsWrapperPassPassERNS_12PassRegistryE
   obj:/usr/lib/x86_64-linux-gnu/libLLVM-11.so.1
   fun:__pthread_once_slow
   fun:_ZN4llvm32initializeScopInfoRegionPassPassERNS_12PassRegistryE
   obj:/usr/lib/x86_64-linux-gnu/libLLVM-11.so.1
   fun:__pthread_once_slow
}
{
   e447abff570cee9f8bcfcbeaa2f5a592
   Memcheck:Leak
   match-leak-kinds: reachable
   fun:_Znwm
   obj:/usr/lib/x86_64-linux-gnu/libLLVM-11.so.1
   fun:__pthread_once_slow
   fun:_ZN4llvm34initializeCallGraphWrapperPassPassERNS_12PassRegistryE
   obj:/usr/lib/x86_64-linux-gnu/libLLVM-11.so.1
   fun:__pthread_once_slow
   fun:_ZN4llvm34initializeGlobalsAAWrapperPassPassERNS_12PassRegistryE
   obj:/usr/lib/x86_64-linux-gnu/libLLVM-11.so.1
   fun:__pthread_once_slow
   fun:_ZN4llvm34initializeAAResultsWrapperPassPassERNS_12PassRegistryE
   obj:/usr/lib/x86_64-linux-gnu/libLLVM-11.so.1
   fun:__pthread_once_slow
}
{
   f120d35d881b206a53bdf9cbb65c85f4
   Memcheck:Leak
   match-leak-kinds: reachable
   fun:_Znwm
   obj:/usr/lib/x86_64-linux-gnu/libLLVM-11.so.1
   fun:_ZN4llvm12PassRegistry12registerPassERKNS_8PassInfoEb
   obj:/usr/lib/x86_64-linux-gnu/libLLVM-11.so.1
   fun:__pthread_once_slow
   fun:_ZN4llvm36initializeGISelKnownBitsAnalysisPassERNS_12PassRegistryE
   obj:/usr/lib/x86_64-linux-gnu/libLLVM-11.so.1
   fun:__pthread_once_slow
   fun:_ZN4llvm31initializeInstructionSelectPassERNS_12PassRegistryE
   fun:LLVMInitializeAMDGPUTarget
   obj:/usr/lib/x86_64-linux-gnu/dri/radeonsi_dri.so
   fun:__pthread_once_slow
}
{
   f965b544de252276859e08c8f9063b87
   Memcheck:Leak
   match-leak-kinds: reachable
   fun:calloc
   fun:g_malloc0
   obj:/usr/lib/x86_64-linux-gnu/libglib-2.0.so.0.6600.8
   fun:g_hash_table_new_full
   fun:g_main_context_new
   fun:g_main_context_default
   fun:g_main_context_push_thread_default
   fun:_ZN27QEventDispatcherGlibPrivateC1EP13_GMainContext
   fun:_ZN20QEventDispatcherGlibC1EP7QObject
   obj:/usr/lib/x86_64-linux-gnu/libQt6Core.so.6.2.4
   obj:/usr/lib/x86_64-linux-gnu/libQt6Core.so.6.2.4
   obj:/usr/lib/x86_64-linux-gnu/libQt6Core.so.6.2.4
}
{
   a3f4e36ebe0acce174e3dfd1a78769f4
   Memcheck:Leak
   match-leak-kinds: reachable
   fun:_Znwm
   obj:/usr/lib/x86_64-linux-gnu/libLLVM-11.so.1
   fun:_ZN4llvm12PassRegistry12registerPassERKNS_8PassInfoEb
   obj:/usr/lib/x86_64-linux-gnu/libLLVM-11.so.1
   fun:__pthread_once_slow
   fun:_ZN4llvm28initializeCodeGenPreparePassERNS_12PassRegistryE
   fun:_ZN4llvm17initializeCodeGenERNS_12PassRegistryE
   fun:_ZN4llvm16TargetPassConfigC1ERNS_17LLVMTargetMachineERNS_6legacy15PassManagerBaseE
   obj:/usr/lib/x86_64-linux-gnu/libLLVM-11.so.1
   fun:_ZN4llvm17LLVMTargetMachine19addPassesToEmitFileERNS_6legacy15PassManagerBaseERNS_17raw_pwrite_streamEPS4_NS_15CodeGenFileTypeEbPNS_28MachineModuleInfoWrapperPassE
   obj:/usr/lib/x86_64-linux-gnu/dri/radeonsi_dri.so
   obj:/usr/lib/x86_64-linux-gnu/dri/radeonsi_dri.so
}
{
   1f75964d8dd4e16d10cef0c88e2cd566
   Memcheck:Leak
   match-leak-kinds: reachable
   fun:malloc
   fun:strdup
   fun:_dl_load_cache_lookup
   fun:_dl_map_object
   fun:openaux
   fun:_dl_catch_exception
   fun:_dl_map_object_deps
   fun:dl_open_worker
   fun:_dl_catch_exception
   fun:_dl_open
   fun:dlopen_doit
   fun:_dl_catch_exception
}
{
   e814c8171acbde0ed65c9d49cba60a07
   Memcheck:Leak
   match-leak-kinds: reachable
   fun:malloc
   fun:_XlcSetConverter
   fun:_XlcAddUtf8LocaleConverters
   fun:_XlcUtf8Loader
   fun:_XOpenLC
   fun:XmbTextListToTextProperty
   fun:_ZN10QXcbWindow14setWindowTitleEPK14QXcbConnectionjRK7QString
   fun:_ZN14QXcbConnection19getQtSelectionOwnerEv
   obj:/usr/lib/x86_64-linux-gnu/libQt6XcbQpa.so.6.2.4
   fun:_ZN14QXcbConnection17initializeScreensEv
   fun:_ZN14QXcbConnectionC1EP19QXcbNativeInterfacebjPKc
   fun:_ZN15QXcbIntegrationC1ERK5QListI7QStringERiPPc
}
{
   5c6f5e12d9fa40af891bad6ad3e5ef98
   Memcheck:Leak
   match-leak-kinds: reachable
   fun:_Znwm
   obj:/usr/lib/x86_64-linux-gnu/libLLVM-11.so.1
   fun:__pthread_once_slow
   fun:_ZN4llvm26initializeWinEHPreparePassERNS_12PassRegistryE
   fun:_ZN4llvm17initializeCodeGenERNS_12PassRegistryE
   fun:_ZN4llvm16TargetPassConfigC1ERNS_17LLVMTargetMachineERNS_6legacy15PassManagerBaseE
   obj:/usr/lib/x86_64-linux-gnu/libLLVM-11.so.1
   fun:_ZN4llvm17LLVMTargetMachine19addPassesToEmitFileERNS_6legacy15PassManagerBaseERNS_17raw_pwrite_streamEPS4_NS_15CodeGenFileTypeEbPNS_28MachineModuleInfoWrapperPassE
   obj:/usr/lib/x86_64-linux-gnu/dri/radeonsi_dri.so
   obj:/usr/lib/x86_64-linux-gnu/dri/radeonsi_dri.so
   obj:/usr/lib/x86_64-linux-gnu/dri/radeonsi_dri.so
   obj:/usr/lib/x86_64-linux-gnu/dri/radeonsi_dri.so
}
{
   419b3831c6214d66e253b5041417d12e
   Memcheck:Leak
   match-leak-kinds: reachable
   fun:_Znwm
   obj:/usr/lib/x86_64-linux-gnu/libLLVM-11.so.1
   fun:_ZN4llvm12PassRegistry12registerPassERKNS_8PassInfoEb
   obj:/usr/lib/x86_64-linux-gnu/libLLVM-11.so.1
   fun:__pthread_once_slow
   fun:_ZN4llvm24initializeVirtRegMapPassERNS_12PassRegistryE
   obj:/usr/lib/x86_64-linux-gnu/libLLVM-11.so.1
   fun:__pthread_once_slow
   obj:/usr/lib/x86_64-linux-gnu/libLLVM-11.so.1
   fun:LLVMInitializeAMDGPUTarget
   obj:/usr/lib/x86_64-linux-gnu/dri/radeonsi_dri.so
   fun:__pthread_once_slow
}
{
   69730719700e69bed77b0960917a7668
   Memcheck:Leak
   match-leak-kinds: reachable
   fun:_Znwm
   obj:/usr/lib/x86_64-linux-gnu/libLLVM-11.so.1
   fun:_ZN4llvm12PassRegistry12registerPassERKNS_8PassInfoEb
   obj:/usr/lib/x86_64-linux-gnu/libLLVM-11.so.1
   fun:__pthread_once_slow
   fun:_ZN4llvm35initializeGCMachineCodeAnalysisPassERNS_12PassRegistryE
   fun:_ZN4llvm17initializeCodeGenERNS_12PassRegistryE
   fun:_ZN4llvm16TargetPassConfigC1ERNS_17LLVMTargetMachineERNS_6legacy15PassManagerBaseE
   obj:/usr/lib/x86_64-linux-gnu/libLLVM-11.so.1
   fun:_ZN4llvm17LLVMTargetMachine19addPassesToEmitFileERNS_6legacy15PassManagerBaseERNS_17raw_pwrite_streamEPS4_NS_15CodeGenFileTypeEbPNS_28MachineModuleInfoWrapperPassE
   obj:/usr/lib/x86_64-linux-gnu/dri/radeonsi_dri.so
   obj:/usr/lib/x86_64-linux-gnu/dri/radeonsi_dri.so
}
{
   1c338e325b46b979ebbc49d160956da5
   Memcheck:Leak
   match-leak-kinds: reachable
   fun:_Znwm
   obj:/usr/lib/x86_64-linux-gnu/libLLVM-11.so.1
   fun:__pthread_once_slow
   fun:_ZN4llvm26initializeExpandPostRAPassERNS_12PassRegistryE
   fun:_ZN4llvm17initializeCodeGenERNS_12PassRegistryE
   fun:_ZN4llvm16TargetPassConfigC1ERNS_17LLVMTargetMachineERNS_6legacy15PassManagerBaseE
   obj:/usr/lib/x86_64-linux-gnu/libLLVM-11.so.1
   fun:_ZN4llvm17LLVMTargetMachine19addPassesToEmitFileERNS_6legacy15PassManagerBaseERNS_17raw_pwrite_streamEPS4_NS_15CodeGenFileTypeEbPNS_28MachineModuleInfoWrapperPassE
   obj:/usr/lib/x86_64-linux-gnu/dri/radeonsi_dri.so
   obj:/usr/lib/x86_64-linux-gnu/dri/radeonsi_dri.so
   obj:/usr/lib/x86_64-linux-gnu/dri/radeonsi_dri.so
   obj:/usr/lib/x86_64-linux-gnu/dri/radeonsi_dri.so
}
{
   1a2f2210c799f4032a11c243a274cfb3
   Memcheck:Leak
   match-leak-kinds: reachable
   fun:_Znwm
   obj:/usr/lib/x86_64-linux-gnu/libLLVM-11.so.1
   fun:_ZN4llvm12PassRegistry12registerPassERKNS_8PassInfoEb
   obj:/usr/lib/x86_64-linux-gnu/libLLVM-11.so.1
   fun:__pthread_once_slow
   fun:_ZN4llvm47initializeLazyMachineBlockFrequencyInfoPassPassERNS_12PassRegistryE
   obj:/usr/lib/x86_64-linux-gnu/libLLVM-11.so.1
   fun:__pthread_once_slow
   fun:_ZN4llvm50initializeMachineOptimizationRemarkEmitterPassPassERNS_12PassRegistryE
   fun:_ZN4llvm17initializeCodeGenERNS_12PassRegistryE
   fun:_ZN4llvm16TargetPassConfigC1ERNS_17LLVMTargetMachineERNS_6legacy15PassManagerBaseE
   obj:/usr/lib/x86_64-linux-gnu/libLLVM-11.so.1
}
{
   49f72864975f794b63fb8156115bac63
   Memcheck:Leak
   match-leak-kinds: reachable
   fun:_Znwm
   obj:/usr/lib/x86_64-linux-gnu/libLLVM-11.so.1
   fun:__pthread_once_slow
   fun:_ZN4llvm25initializeMachineLICMPassERNS_12PassRegistryE
   fun:_ZN4llvm17initializeCodeGenERNS_12PassRegistryE
   fun:_ZN4llvm16TargetPassConfigC1ERNS_17LLVMTargetMachineERNS_6legacy15PassManagerBaseE
   obj:/usr/lib/x86_64-linux-gnu/libLLVM-11.so.1
   fun:_ZN4llvm17LLVMTargetMachine19addPassesToEmitFileERNS_6legacy15PassManagerBaseERNS_17raw_pwrite_streamEPS4_NS_15CodeGenFileTypeEbPNS_28MachineModuleInfoWrapperPassE
   obj:/usr/lib/x86_64-linux-gnu/dri/radeonsi_dri.so
   obj:/usr/lib/x86_64-linux-gnu/dri/radeonsi_dri.so
   obj:/usr/lib/x86_64-linux-gnu/dri/radeonsi_dri.so
   obj:/usr/lib/x86_64-linux-gnu/dri/radeonsi_dri.so
}
{
   f38d9b7b6ccde5699ceb5d3e715df7f3
   Memcheck:Leak
   match-leak-kinds: reachable
   fun:malloc
   fun:_ZN6icu_677UMemorynwEm
   fun:_ZN6icu_6713CollationRoot4loadER10UErrorCode
   fun:_ZN6icu_6713CollationRoot17getRootCacheEntryER10UErrorCode
   fun:_ZN6icu_6715CollationLoader13loadTailoringERKNS_6LocaleER10UErrorCode
   fun:_ZN6icu_678Collator12makeInstanceERKNS_6LocaleER10UErrorCode
   fun:_ZN6icu_678Collator14createInstanceERKNS_6LocaleER10UErrorCode
   fun:ucol_open_67
   obj:/usr/lib/x86_64-linux-gnu/libQt6Core.so.6.2.4
   fun:_ZN23QFileSystemModelPrivate12sortChildrenEiRK11QModelIndex
   fun:_ZN16QFileSystemModel4sortEiN2Qt9SortOrderE
   fun:_ZN7QObject5eventEP6QEvent
}
{
   04c52ef090e60e0e7876e507928324d3
   Memcheck:Leak
   match-leak-kinds: reachable
   fun:_Znwm
   obj:/usr/lib/x86_64-linux-gnu/libLLVM-11.so.1
   fun:__pthread_once_slow
   fun:_ZN4llvm34initializeAAResultsWrapperPassPassERNS_12PassRegistryE
   obj:/usr/lib/x86_64-linux-gnu/libLLVM-11.so.1
   fun:__pthread_once_slow
   fun:_ZN4llvm32initializeScopInfoRegionPassPassERNS_12PassRegistryE
   obj:/usr/lib/x86_64-linux-gnu/libLLVM-11.so.1
   fun:__pthread_once_slow
   fun:_ZN4llvm28initializeDependenceInfoPassERNS_12PassRegistryE
   obj:/usr/lib/x86_64-linux-gnu/libLLVM-11.so.1
   fun:__pthread_once_slow
}
{
   d935de383e3d521ca35d076a456f1777
   Memcheck:Leak
   match-leak-kinds: reachable
   fun:_Znwm
   obj:/usr/lib/x86_64-linux-gnu/dri/radeonsi_dri.so
   obj:/usr/lib/x86_64-linux-gnu/dri/radeonsi_dri.so
   fun:call_init.part.0
   fun:call_init
   fun:_dl_init
   fun:_dl_catch_exception
   fun:dl_open_worker
   fun:_dl_catch_exception
   fun:_dl_open
   fun:dlopen_doit
   fun:_dl_catch_exception
   fun:_dl_catch_error
}
{
   ff127510ec2c07b9b53ee1a2758e6be7
   Memcheck:Leak
   match-leak-kinds: reachable
   fun:_Znwm
   obj:/usr/lib/x86_64-linux-gnu/libLLVM-11.so.1
   fun:_ZN4llvm12PassRegistry12registerPassERKNS_8PassInfoEb
   obj:/usr/lib/x86_64-linux-gnu/libLLVM-11.so.1
   fun:__pthread_once_slow
   fun:_ZN4llvm31initializePatchableFunctionPassERNS_12PassRegistryE
   fun:_ZN4llvm17initializeCodeGenERNS_12PassRegistryE
   fun:_ZN4llvm16TargetPassConfigC1ERNS_17LLVMTargetMachineERNS_6legacy15PassManagerBaseE
   obj:/usr/lib/x86_64-linux-gnu/libLLVM-11.so.1
   fun:_ZN4llvm17LLVMTargetMachine19addPassesToEmitFileERNS_6legacy15PassManagerBaseERNS_17raw_pwrite_streamEPS4_NS_15CodeGenFileTypeEbPNS_28MachineModuleInfoWrapperPassE
   obj:/usr/lib/x86_64-linux-gnu/dri/radeonsi_dri.so
   obj:/usr/lib/x86_64-linux-gnu/dri/radeonsi_dri.so
}
{
   17facba263458350a6ca566732cca843
   Memcheck:Leak
   match-leak-kinds: reachable
   fun:_Znwm
   obj:/usr/lib/x86_64-linux-gnu/libLLVM-11.so.1
   fun:__pthread_once_slow
   fun:_ZN4llvm42initializePostDominatorTreeWrapperPassPassERNS_12PassRegistryE
   obj:/usr/lib/x86_64-linux-gnu/libLLVM-11.so.1
   fun:__pthread_once_slow
   fun:_ZN4llvm28initializeRegionInfoPassPassERNS_12PassRegistryE
   obj:/usr/lib/x86_64-linux-gnu/libLLVM-11.so.1
   fun:__pthread_once_slow
   fun:_ZN4llvm32initializeScopInfoRegionPassPassERNS_12PassRegistryE
   obj:/usr/lib/x86_64-linux-gnu/libLLVM-11.so.1
   fun:__pthread_once_slow
}
{
   5bd5d4e9865e89d15dac1c4e1fc020c8
   Memcheck:Leak
   match-leak-kinds: reachable
   fun:_Znwm
   obj:/usr/lib/x86_64-linux-gnu/libLLVM-11.so.1
   fun:_ZN4llvm12PassRegistry12registerPassERKNS_8PassInfoEb
   obj:/usr/lib/x86_64-linux-gnu/libLLVM-11.so.1
   fun:__pthread_once_slow
   fun:_ZN4llvm32initializeIVUsersWrapperPassPassERNS_12PassRegistryE
   obj:/usr/lib/x86_64-linux-gnu/libLLVM-11.so.1
   fun:__pthread_once_slow
   fun:_ZN4llvm28createLoopStrengthReducePassEv
   fun:_ZN4llvm16TargetPassConfig11addIRPassesEv
   obj:/usr/lib/x86_64-linux-gnu/libLLVM-11.so.1
   fun:_ZN4llvm16TargetPassConfig13addISelPassesEv
}
{
   eee5c27f195effd3db76678bcec4c03a
   Memcheck:Leak
   match-leak-kinds: reachable
   fun:_Znwm
   obj:/usr/lib/x86_64-linux-gnu/libLLVM-11.so.1
   fun:__pthread_once_slow
   fun:_ZN4llvm30initializeEarlyMachineLICMPassERNS_12PassRegistryE
   fun:_ZN4llvm17initializeCodeGenERNS_12PassRegistryE
   fun:_ZN4llvm16TargetPassConfigC1ERNS_17LLVMTargetMachineERNS_6legacy15PassManagerBaseE
   obj:/usr/lib/x86_64-linux-gnu/libLLVM-11.so.1
   fun:_ZN4llvm17LLVMTargetMachine19addPassesToEmitFileERNS_6legacy15PassManagerBaseERNS_17raw_pwrite_streamEPS4_NS_15CodeGenFileTypeEbPNS_28MachineModuleInfoWrapperPassE
   obj:/usr/lib/x86_64-linux-gnu/dri/radeonsi_dri.so
   obj:/usr/lib/x86_64-linux-gnu/dri/radeonsi_dri.so
   obj:/usr/lib/x86_64-linux-gnu/dri/radeonsi_dri.so
   obj:/usr/lib/x86_64-linux-gnu/dri/radeonsi_dri.so
}
{
   7c2992dc5b573b4985c9a30798dfd7ce
   Memcheck:Leak
   match-leak-kinds: reachable
   fun:malloc
   fun:FcStrSetCreate
   fun:FcGetDefaultLangs
   obj:/usr/lib/x86_64-linux-gnu/libfontconfig.so.1.12.0
   fun:FcFontSetList
   fun:FcFontList
   fun:_ZN19QFontconfigDatabase20populateFontDatabaseEv
   obj:/usr/lib/x86_64-linux-gnu/libQt6Gui.so.6.2.4
   fun:_ZN20QFontDatabasePrivate8findFontERK8QFontDefib
   fun:_ZN20QFontDatabasePrivate4loadEPK12QFontPrivatei
   fun:_ZNK12QFontPrivate15engineForScriptEi
   fun:_ZNK13QFontMetricsF7leadingEv
}
{
   dfe7708fee48d170186c740f4edb5726
   Memcheck:Leak
   match-leak-kinds: reachable
   fun:_Znwm
   obj:/usr/lib/x86_64-linux-gnu/libLLVM-11.so.1
   fun:_ZN4llvm12PassRegistry12registerPassERKNS_8PassInfoEb
   obj:/usr/lib/x86_64-linux-gnu/libLLVM-11.so.1
   fun:__pthread_once_slow
   fun:_ZN4llvm32initializeScopInfoRegionPassPassERNS_12PassRegistryE
   obj:/usr/lib/x86_64-linux-gnu/libLLVM-11.so.1
   fun:__pthread_once_slow
   fun:_ZN4llvm28initializeDependenceInfoPassERNS_12PassRegistryE
   obj:/usr/lib/x86_64-linux-gnu/libLLVM-11.so.1
   fun:__pthread_once_slow
   fun:_ZN4llvm28initializeCodeGenerationPassERNS_12PassRegistryE
}
{
   8a9f20f8c15e8f446a2a4212868217b1
   Memcheck:Leak
   match-leak-kinds: reachable
   fun:_Znwm
   obj:/usr/lib/x86_64-linux-gnu/libLLVM-11.so.1
   fun:__pthread_once_slow
   fun:_ZN4llvm30initializeMachinePipelinerPassERNS_12PassRegistryE
   fun:_ZN4llvm17initializeCodeGenERNS_12PassRegistryE
   fun:_ZN4llvm16TargetPassConfigC1ERNS_17LLVMTargetMachineERNS_6legacy15PassManagerBaseE
   obj:/usr/lib/x86_64-linux-gnu/libLLVM-11.so.1
   fun:_ZN4llvm17LLVMTargetMachine19addPassesToEmitFileERNS_6legacy15PassManagerBaseERNS_17raw_pwrite_streamEPS4_NS_15CodeGenFileTypeEbPNS_28MachineModuleInfoWrapperPassE
   obj:/usr/lib/x86_64-linux-gnu/dri/radeonsi_dri.so
   obj:/usr/lib/x86_64-linux-gnu/dri/radeonsi_dri.so
   obj:/usr/lib/x86_64-linux-gnu/dri/radeonsi_dri.so
   obj:/usr/lib/x86_64-linux-gnu/dri/radeonsi_dri.so
}
{
   b4bcbbaab8e1e89a3eea3292d5e97550
   Memcheck:Leak
   match-leak-kinds: reachable
   fun:_Znwm
   obj:/usr/lib/x86_64-linux-gnu/libLLVM-11.so.1
   fun:_ZN4llvm12PassRegistry12registerPassERKNS_8PassInfoEb
   obj:/usr/lib/x86_64-linux-gnu/libLLVM-11.so.1
   fun:__pthread_once_slow
   fun:_ZN4llvm25initializeEdgeBundlesPassERNS_12PassRegistryE
   obj:/usr/lib/x86_64-linux-gnu/libLLVM-11.so.1
   fun:__pthread_once_slow
   fun:_ZN4llvm22initializeRAGreedyPassERNS_12PassRegistryE
   fun:_ZN4llvm17initializeCodeGenERNS_12PassRegistryE
   fun:_ZN4llvm16TargetPassConfigC1ERNS_17LLVMTargetMachineERNS_6legacy15PassManagerBaseE
   obj:/usr/lib/x86_64-linux-gnu/libLLVM-11.so.1
}
{
   49adf72a57eea4ab31676cf0e8bb9493
   Memcheck:Leak
   match-leak-kinds: reachable
   fun:_Znwm
   obj:/usr/lib/x86_64-linux-gnu/libLLVM-11.so.1
   fun:_ZN4llvm12PassRegistry12registerPassERKNS_8PassInfoEb
   obj:/usr/lib/x86_64-linux-gnu/libLLVM-11.so.1
   fun:__pthread_once_slow
   fun:_ZN4llvm34initializeIslScheduleOptimizerPassERNS_12PassRegistryE
   fun:_ZN5polly21initializePollyPassesERN4llvm12PassRegistryE
   obj:/usr/lib/x86_64-linux-gnu/libLLVM-11.so.1
   fun:call_init.part.0
   fun:call_init
   fun:_dl_init
   fun:_dl_catch_exception
   fun:dl_open_worker
}
{
   72579831ce2ae4c26ff3afbde9ca2e3a
   Memcheck:Leak
   match-leak-kinds: reachable
   fun:_Znwm
   obj:/usr/lib/x86_64-linux-gnu/libLLVM-11.so.1
   fun:__pthread_once_slow
   obj:/usr/lib/x86_64-linux-gnu/libLLVM-11.so.1
   obj:/usr/lib/x86_64-linux-gnu/libLLVM-11.so.1
   fun:__pthread_once_slow
   obj:/usr/lib/x86_64-linux-gnu/libLLVM-11.so.1
   fun:LLVMInitializeAMDGPUTarget
   obj:/usr/lib/x86_64-linux-gnu/dri/radeonsi_dri.so
   fun:__pthread_once_slow
   obj:/usr/lib/x86_64-linux-gnu/dri/radeonsi_dri.so
   obj:/usr/lib/x86_64-linux-gnu/dri/radeonsi_dri.so
}
{
   6fa362cce049276c9a5e4d8c50f93428
   Memcheck:Leak
   match-leak-kinds: reachable
   fun:_Znwm
   obj:/usr/lib/x86_64-linux-gnu/libLLVM-11.so.1
   fun:_ZN4llvm12PassRegistry12registerPassERKNS_8PassInfoEb
   obj:/usr/lib/x86_64-linux-gnu/libLLVM-11.so.1
   fun:__pthread_once_slow
   fun:_ZN4llvm30initializeBranchFolderPassPassERNS_12PassRegistryE
   fun:_ZN4llvm17initializeCodeGenERNS_12PassRegistryE
   fun:_ZN4llvm16TargetPassConfigC1ERNS_17LLVMTargetMachineERNS_6legacy15PassManagerBaseE
   obj:/usr/lib/x86_64-linux-gnu/libLLVM-11.so.1
   fun:_ZN4llvm17LLVMTargetMachine19addPassesToEmitFileERNS_6legacy15PassManagerBaseERNS_17raw_pwrite_streamEPS4_NS_15CodeGenFileTypeEbPNS_28MachineModuleInfoWrapperPassE
   obj:/usr/lib/x86_64-linux-gnu/dri/radeonsi_dri.so
   obj:/usr/lib/x86_64-linux-gnu/dri/radeonsi_dri.so
}
{
   dcc7f7e2b99aadc71c07d0dff44f07f2
   Memcheck:Leak
   match-leak-kinds: reachable
   fun:_Znwm
   obj:/usr/lib/x86_64-linux-gnu/libLLVM-11.so.1
   fun:__pthread_once_slow
   fun:_ZN4llvm33initializeLoopInfoWrapperPassPassERNS_12PassRegistryE
   obj:/usr/lib/x86_64-linux-gnu/libLLVM-11.so.1
   fun:__pthread_once_slow
   fun:_ZN4llvm40initializeScalarEvolutionWrapperPassPassERNS_12PassRegistryE
   obj:/usr/lib/x86_64-linux-gnu/libLLVM-11.so.1
   fun:__pthread_once_slow
   fun:_ZN4llvm31initializeSCEVAAWrapperPassPassERNS_12PassRegistryE
   obj:/usr/lib/x86_64-linux-gnu/libLLVM-11.so.1
   fun:__pthread_once_slow
}
{
   9da73bf94780aa7809530089cfaa50e2
   Memcheck:Leak
   match-leak-kinds: reachable
   fun:_Znwm
   obj:/usr/lib/x86_64-linux-gnu/libLLVM-11.so.1
   fun:_ZN4llvm12PassRegistry12registerPassERKNS_8PassInfoEb
   obj:/usr/lib/x86_64-linux-gnu/libLLVM-11.so.1
   fun:__pthread_once_slow
   fun:_ZN4llvm35initializeMachineRegionInfoPassPassERNS_12PassRegistryE
   fun:_ZN4llvm17initializeCodeGenERNS_12PassRegistryE
   fun:_ZN4llvm16TargetPassConfigC1ERNS_17LLVMTargetMachineERNS_6legacy15PassManagerBaseE
   obj:/usr/lib/x86_64-linux-gnu/libLLVM-11.so.1
   fun:_ZN4llvm17LLVMTargetMachine19addPassesToEmitFileERNS_6legacy15PassManagerBaseERNS_17raw_pwrite_streamEPS4_NS_15CodeGenFileTypeEbPNS_28MachineModuleInfoWrapperPassE
   obj:/usr/lib/x86_64-linux-gnu/dri/radeonsi_dri.so
   obj:/usr/lib/x86_64-linux-gnu/dri/radeonsi_dri.so
}
{
   4a2c0276bd704edf4b2bbc9c42a34fa7
   Memcheck:Leak
   match-leak-kinds: reachable
   fun:_Znwm
   obj:/usr/lib/x86_64-linux-gnu/libLLVM-11.so.1
   fun:_ZN4llvm12PassRegistry12registerPassERKNS_8PassInfoEb
   obj:/usr/lib/x86_64-linux-gnu/libLLVM-11.so.1
   fun:__pthread_once_slow
   fun:_ZN4llvm29initializeVirtRegRewriterPassERNS_12PassRegistryE
   fun:_ZN4llvm17initializeCodeGenERNS_12PassRegistryE
   fun:_ZN4llvm16TargetPassConfigC1ERNS_17LLVMTargetMachineERNS_6legacy15PassManagerBaseE
   obj:/usr/lib/x86_64-linux-gnu/libLLVM-11.so.1
   fun:_ZN4llvm17LLVMTargetMachine19addPassesToEmitFileERNS_6legacy15PassManagerBaseERNS_17raw_pwrite_streamEPS4_NS_15CodeGenFileTypeEbPNS_28MachineModuleInfoWrapperPassE
   obj:/usr/lib/x86_64-linux-gnu/dri/radeonsi_dri.so
   obj:/usr/lib/x86_64-linux-gnu/dri/radeonsi_dri.so
}
{
   8d9ed19280a7fbdc8509c37f471c1529
   Memcheck:Leak
   match-leak-kinds: reachable
   fun:_Znwm
   obj:/usr/lib/x86_64-linux-gnu/libLLVM-11.so.1
   fun:__pthread_once_slow
   fun:_ZN4llvm29initializeDetectDeadLanesPassERNS_12PassRegistryE
   fun:_ZN4llvm17initializeCodeGenERNS_12PassRegistryE
   fun:_ZN4llvm16TargetPassConfigC1ERNS_17LLVMTargetMachineERNS_6legacy15PassManagerBaseE
   obj:/usr/lib/x86_64-linux-gnu/libLLVM-11.so.1
   fun:_ZN4llvm17LLVMTargetMachine19addPassesToEmitFileERNS_6legacy15PassManagerBaseERNS_17raw_pwrite_streamEPS4_NS_15CodeGenFileTypeEbPNS_28MachineModuleInfoWrapperPassE
   obj:/usr/lib/x86_64-linux-gnu/dri/radeonsi_dri.so
   obj:/usr/lib/x86_64-linux-gnu/dri/radeonsi_dri.so
   obj:/usr/lib/x86_64-linux-gnu/dri/radeonsi_dri.so
   obj:/usr/lib/x86_64-linux-gnu/dri/radeonsi_dri.so
}
{
   d9d6f50c801491350de71980c99ce3e0
   Memcheck:Leak
   match-leak-kinds: reachable
   fun:_Znwm
   obj:/usr/lib/x86_64-linux-gnu/libLLVM-11.so.1
   fun:__pthread_once_slow
   fun:_ZN4llvm28initializeCFGuardLongjmpPassERNS_12PassRegistryE
   fun:_ZN4llvm17initializeCodeGenERNS_12PassRegistryE
   fun:_ZN4llvm16TargetPassConfigC1ERNS_17LLVMTargetMachineERNS_6legacy15PassManagerBaseE
   obj:/usr/lib/x86_64-linux-gnu/libLLVM-11.so.1
   fun:_ZN4llvm17LLVMTargetMachine19addPassesToEmitFileERNS_6legacy15PassManagerBaseERNS_17raw_pwrite_streamEPS4_NS_15CodeGenFileTypeEbPNS_28MachineModuleInfoWrapperPassE
   obj:/usr/lib/x86_64-linux-gnu/dri/radeonsi_dri.so
   obj:/usr/lib/x86_64-linux-gnu/dri/radeonsi_dri.so
   obj:/usr/lib/x86_64-linux-gnu/dri/radeonsi_dri.so
   obj:/usr/lib/x86_64-linux-gnu/dri/radeonsi_dri.so
}
{
   73af27b9b238cb2336e2499d83fe9f56
   Memcheck:Leak
   match-leak-kinds: reachable
   fun:_Znwm
   obj:/usr/lib/x86_64-linux-gnu/libLLVM-11.so.1
   fun:__pthread_once_slow
   fun:_ZN4llvm34initializeMachineDominatorTreePassERNS_12PassRegistryE
   obj:/usr/lib/x86_64-linux-gnu/libLLVM-11.so.1
   fun:__pthread_once_slow
   fun:_ZN4llvm29initializeMachineLoopInfoPassERNS_12PassRegistryE
   obj:/usr/lib/x86_64-linux-gnu/libLLVM-11.so.1
   fun:__pthread_once_slow
   fun:_ZN4llvm39initializeMachineBlockFrequencyInfoPassERNS_12PassRegistryE
   obj:/usr/lib/x86_64-linux-gnu/libLLVM-11.so.1
   fun:__pthread_once_slow
}
{
   acd944e307471fd6ecbd1ad15932c11e
   Memcheck:Leak
   match-leak-kinds: reachable
   fun:_Znwm
   obj:/usr/lib/x86_64-linux-gnu/libLLVM-11.so.1
   fun:_ZN4llvm12PassRegistry12registerPassERKNS_8PassInfoEb
   obj:/usr/lib/x86_64-linux-gnu/libLLVM-11.so.1
   fun:__pthread_once_slow
   fun:_ZN4llvm25initializeLazyBFIPassPassERNS_12PassRegistryE
   obj:/usr/lib/x86_64-linux-gnu/libLLVM-11.so.1
   fun:__pthread_once_slow
   fun:_ZN4llvm50initializeOptimizationRemarkEmitterWrapperPassPassERNS_12PassRegistryE
   obj:/usr/lib/x86_64-linux-gnu/libLLVM-11.so.1
   fun:__pthread_once_slow
   fun:_ZN4llvm38initializeScopDetectionWrapperPassPassERNS_12PassRegistryE
}
{
   fbd4d4d070f987dd1ce9258789b5a0cd
   Memcheck:Leak
   match-leak-kinds: reachable
   fun:malloc
   fun:strdup
   obj:/usr/lib/x86_64-linux-gnu/libX11.so.6.4.0
   obj:/usr/lib/x86_64-linux-gnu/libX11.so.6.4.0
   fun:_XlcCreateLC
   fun:_XlcUtf8Loader
   fun:_XOpenLC
   fun:XmbTextListToTextProperty
   fun:_ZN10QXcbWindow14setWindowTitleEPK14QXcbConnectionjRK7QString
   fun:_ZN14QXcbConnection19getQtSelectionOwnerEv
   obj:/usr/lib/x86_64-linux-gnu/libQt6XcbQpa.so.6.2.4
   fun:_ZN14QXcbConnection17initializeScreensEv
}
{
   e6acf1cec0f3a0175b14738d1c12f6f2
   Memcheck:Leak
   match-leak-kinds: reachable
   fun:_Znwm
   obj:/usr/lib/x86_64-linux-gnu/libLLVM-11.so.1
   fun:_ZN4llvm12PassRegistry12registerPassERKNS_8PassInfoEb
   obj:/usr/lib/x86_64-linux-gnu/libLLVM-11.so.1
   fun:__pthread_once_slow
   fun:_ZN4llvm21createLowerInvokePassEv
   fun:_ZN4llvm16TargetPassConfig27addPassesToHandleExceptionsEv
   fun:_ZN4llvm16TargetPassConfig13addISelPassesEv
   fun:_ZN4llvm17LLVMTargetMachine19addPassesToEmitFileERNS_6legacy15PassManagerBaseERNS_17raw_pwrite_streamEPS4_NS_15CodeGenFileTypeEbPNS_28MachineModuleInfoWrapperPassE
   obj:/usr/lib/x86_64-linux-gnu/dri/radeonsi_dri.so
   obj:/usr/lib/x86_64-linux-gnu/dri/radeonsi_dri.so
   obj:/usr/lib/x86_64-linux-gnu/dri/radeonsi_dri.so
}
{
   fdf24b0e9556cd6ebdddef45d2835a37
   Memcheck:Leak
   match-leak-kinds: reachable
   fun:_Znwm
   obj:/usr/lib/x86_64-linux-gnu/libLLVM-11.so.1
   fun:__pthread_once_slow
   fun:_ZN4llvm33createLowerConstantIntrinsicsPassEv
   fun:_ZN4llvm16TargetPassConfig11addIRPassesEv
   obj:/usr/lib/x86_64-linux-gnu/libLLVM-11.so.1
   fun:_ZN4llvm16TargetPassConfig13addISelPassesEv
   fun:_ZN4llvm17LLVMTargetMachine19addPassesToEmitFileERNS_6legacy15PassManagerBaseERNS_17raw_pwrite_streamEPS4_NS_15CodeGenFileTypeEbPNS_28MachineModuleInfoWrapperPassE
   obj:/usr/lib/x86_64-linux-gnu/dri/radeonsi_dri.so
   obj:/usr/lib/x86_64-linux-gnu/dri/radeonsi_dri.so
   obj:/usr/lib/x86_64-linux-gnu/dri/radeonsi_dri.so
   obj:/usr/lib/x86_64-linux-gnu/dri/radeonsi_dri.so
}
{
   58dfd0eca3df60efb50e1e3e3dff960f
   Memcheck:Leak
   match-leak-kinds: reachable
   fun:malloc
   fun:XInitThreads
   fun:_ZN15QXcbIntegrationC1ERK5QListI7QStringERiPPc
   obj:/usr/lib/x86_64-linux-gnu/qt6/plugins/platforms/libqxcb.so
   fun:_ZN27QPlatformIntegrationFactory6createERK7QStringRK5QListIS0_ERiPPcS2_
   fun:_ZN22QGuiApplicationPrivate25createPlatformIntegrationEv
   fun:_ZN22QGuiApplicationPrivate21createEventDispatcherEv
   fun:_ZN23QCoreApplicationPrivate4initEv
   fun:_ZN22QGuiApplicationPrivate4initEv
   fun:_ZN19QApplicationPrivate4initEv
   fun:main
}
{
   9de3225145ed874128949daa0db4866b
   Memcheck:Leak
   match-leak-kinds: reachable
   fun:malloc
   fun:uhash_open_67
   fun:_ZN6icu_6712UnifiedCacheC1ER10UErrorCode
   fun:_ZN6icu_6712UnifiedCache11getInstanceER10UErrorCode
   fun:_ZN6icu_6715CollationLoaderC1EPKNS_19CollationCacheEntryERKNS_6LocaleER10UErrorCode
   fun:_ZN6icu_6715CollationLoader13loadTailoringERKNS_6LocaleER10UErrorCode
   fun:_ZN6icu_678Collator12makeInstanceERKNS_6LocaleER10UErrorCode
   fun:_ZN6icu_678Collator14createInstanceERKNS_6LocaleER10UErrorCode
   fun:ucol_open_67
   obj:/usr/lib/x86_64-linux-gnu/libQt6Core.so.6.2.4
   fun:_ZN23QFileSystemModelPrivate12sortChildrenEiRK11QModelIndex
   fun:_ZN16QFileSystemModel4sortEiN2Qt9SortOrderE
}
{
   b4a835ec324d7903c6a472cad6ed0c66
   Memcheck:Leak
   match-leak-kinds: reachable
   fun:_Znwm
   obj:/usr/lib/x86_64-linux-gnu/libLLVM-11.so.1
   fun:_ZN4llvm12PassRegistry12registerPassERKNS_8PassInfoEb
   obj:/usr/lib/x86_64-linux-gnu/libLLVM-11.so.1
   fun:__pthread_once_slow
   fun:_ZN4llvm23createAggressiveDCEPassEv
   fun:LLVMAddAggressiveDCEPass
   obj:/usr/lib/x86_64-linux-gnu/dri/radeonsi_dri.so
   obj:/usr/lib/x86_64-linux-gnu/dri/radeonsi_dri.so
   obj:/usr/lib/x86_64-linux-gnu/dri/radeonsi_dri.so
   obj:/usr/lib/x86_64-linux-gnu/dri/radeonsi_dri.so
   obj:/usr/lib/x86_64-linux-gnu/dri/radeonsi_dri.so
}
{
   eb3550b60bd58cc310e6b8d969cf0939
   Memcheck:Leak
   match-leak-kinds: reachable
   fun:_Znwm
   obj:/usr/lib/x86_64-linux-gnu/libLLVM-11.so.1
   fun:__pthread_once_slow
   fun:_ZN4llvm29initializeLiveDebugValuesPassERNS_12PassRegistryE
   fun:_ZN4llvm17initializeCodeGenERNS_12PassRegistryE
   fun:_ZN4llvm16TargetPassConfigC1ERNS_17LLVMTargetMachineERNS_6legacy15PassManagerBaseE
   obj:/usr/lib/x86_64-linux-gnu/libLLVM-11.so.1
   fun:_ZN4llvm17LLVMTargetMachine19addPassesToEmitFileERNS_6legacy15PassManagerBaseERNS_17raw_pwrite_streamEPS4_NS_15CodeGenFileTypeEbPNS_28MachineModuleInfoWrapperPassE
   obj:/usr/lib/x86_64-linux-gnu/dri/radeonsi_dri.so
   obj:/usr/lib/x86_64-linux-gnu/dri/radeonsi_dri.so
   obj:/usr/lib/x86_64-linux-gnu/dri/radeonsi_dri.so
   obj:/usr/lib/x86_64-linux-gnu/dri/radeonsi_dri.so
}
{
   2c27706312b151a953bdf85bf5b966e9
   Memcheck:Leak
   match-leak-kinds: reachable
   fun:malloc
   obj:/usr/lib/x86_64-linux-gnu/libicuuc.so.67.1
   fun:uhash_open_67
   obj:/usr/lib/x86_64-linux-gnu/libicuuc.so.67.1
   fun:_ZN6icu_6715CollationLoader14loadFromLocaleER10UErrorCode
   fun:_ZNK6icu_6712UnifiedCache4_getERKNS_12CacheKeyBaseERPKNS_12SharedObjectEPKvR10UErrorCode
   fun:_ZN6icu_6715CollationLoader13getCacheEntryER10UErrorCode
   fun:_ZN6icu_6715CollationLoader13loadTailoringERKNS_6LocaleER10UErrorCode
   fun:_ZN6icu_678Collator12makeInstanceERKNS_6LocaleER10UErrorCode
   fun:_ZN6icu_678Collator14createInstanceERKNS_6LocaleER10UErrorCode
   fun:ucol_open_67
   obj:/usr/lib/x86_64-linux-gnu/libQt6Core.so.6.2.4
}
{
   92ea614dbb2b6d8a22a47bd547636b5b
   Memcheck:Leak
   match-leak-kinds: reachable
   fun:_Znwm
   obj:/usr/lib/x86_64-linux-gnu/libLLVM-11.so.1
   fun:_ZN4llvm12PassRegistry12registerPassERKNS_8PassInfoEb
   obj:/usr/lib/x86_64-linux-gnu/libLLVM-11.so.1
   fun:__pthread_once_slow
   fun:_ZN4llvm27initializeForwardOpTreePassERNS_12PassRegistryE
   fun:_ZN5polly21initializePollyPassesERN4llvm12PassRegistryE
   obj:/usr/lib/x86_64-linux-gnu/libLLVM-11.so.1
   fun:call_init.part.0
   fun:call_init
   fun:_dl_init
   fun:_dl_catch_exception
   fun:dl_open_worker
}
{
   580a69a1b2392336a3f56a7099072918
   Memcheck:Leak
   match-leak-kinds: reachable
   fun:_Znwm
   obj:/usr/lib/x86_64-linux-gnu/libLLVM-11.so.1
   fun:__pthread_once_slow
   fun:_ZNK4llvm17ManagedStaticBase21RegisterManagedStaticEPFPvvEPFvS1_E
   fun:_ZN4llvm2cl14OptionCategory16registerCategoryEv
   obj:/usr/lib/x86_64-linux-gnu/libLLVM-11.so.1
   fun:call_init.part.0
   fun:call_init
   fun:_dl_init
   fun:_dl_catch_exception
   fun:dl_open_worker
   fun:_dl_catch_exception
   fun:_dl_open
}
{
   f0808f1b8d7dcabe8bf4399d2437ec2f
   Memcheck:Leak
   match-leak-kinds: reachable
   fun:_Znwm
   obj:/usr/lib/x86_64-linux-gnu/libLLVM-11.so.1
   fun:_ZN4llvm12PassRegistry12registerPassERKNS_8PassInfoEb
   obj:/usr/lib/x86_64-linux-gnu/libLLVM-11.so.1
   fun:__pthread_once_slow
   fun:_ZN4llvm26createMergeICmpsLegacyPassEv
   fun:_ZN4llvm16TargetPassConfig11addIRPassesEv
   obj:/usr/lib/x86_64-linux-gnu/libLLVM-11.so.1
   fun:_ZN4llvm16TargetPassConfig13addISelPassesEv
   fun:_ZN4llvm17LLVMTargetMachine19addPassesToEmitFileERNS_6legacy15PassManagerBaseERNS_17raw_pwrite_streamEPS4_NS_15CodeGenFileTypeEbPNS_28MachineModuleInfoWrapperPassE
   obj:/usr/lib/x86_64-linux-gnu/dri/radeonsi_dri.so
   obj:/usr/lib/x86_64-linux-gnu/dri/radeonsi_dri.so
}
{
   7452137dbd901406aabd60d3b73452c6
   Memcheck:Leak
   match-leak-kinds: reachable
   fun:_Znwm
   obj:/usr/lib/x86_64-linux-gnu/libLLVM-11.so.1
   fun:_ZN4llvm12PassRegistry12registerPassERKNS_8PassInfoEb
   obj:/usr/lib/x86_64-linux-gnu/libLLVM-11.so.1
   fun:__pthread_once_slow
   fun:_ZN4llvm23initializeLegalizerPassERNS_12PassRegistryE
   fun:_ZN4llvm20initializeGlobalISelERNS_12PassRegistryE
   fun:LLVMInitializeAMDGPUTarget
   obj:/usr/lib/x86_64-linux-gnu/dri/radeonsi_dri.so
   fun:__pthread_once_slow
   obj:/usr/lib/x86_64-linux-gnu/dri/radeonsi_dri.so
   obj:/usr/lib/x86_64-linux-gnu/dri/radeonsi_dri.so
}
{
   8adffd7974ec47782af3e3ee9945b892
   Memcheck:Leak
   match-leak-kinds: reachable
   fun:malloc
   fun:_XOpenLC
   fun:XmbTextListToTextProperty
   fun:_ZN10QXcbWindow14setWindowTitleEPK14QXcbConnectionjRK7QString
   fun:_ZN14QXcbConnection19getQtSelectionOwnerEv
   obj:/usr/lib/x86_64-linux-gnu/libQt6XcbQpa.so.6.2.4
   fun:_ZN14QXcbConnection17initializeScreensEv
   fun:_ZN14QXcbConnectionC1EP19QXcbNativeInterfacebjPKc
   fun:_ZN15QXcbIntegrationC1ERK5QListI7QStringERiPPc
   obj:/usr/lib/x86_64-linux-gnu/qt6/plugins/platforms/libqxcb.so
   fun:_ZN27QPlatformIntegrationFactory6createERK7QStringRK5QListIS0_ERiPPcS2_
   fun:_ZN22QGuiApplicationPrivate25createPlatformIntegrationEv
}
{
   1d5e9b810118ac0c24348b742a531db4
   Memcheck:Leak
   match-leak-kinds: reachable
   fun:malloc
   fun:_dbus_strdup
   obj:/usr/lib/x86_64-linux-gnu/libdbus-1.so.3.19.13
   obj:/usr/lib/x86_64-linux-gnu/libQt6DBus.so.6.2.4
   fun:_ZN7QObject5eventEP6QEvent
   fun:_ZN16QCoreApplication15notifyInternal2EP7QObjectP6QEvent
   fun:_ZN23QCoreApplicationPrivate16sendPostedEventsEP7QObjectiP11QThreadData
   obj:/usr/lib/x86_64-linux-gnu/libQt6Core.so.6.2.4
   fun:g_main_context_dispatch
   obj:/usr/lib/x86_64-linux-gnu/libglib-2.0.so.0.6600.8
   fun:g_main_context_iteration
   fun:_ZN20QEventDispatcherGlib13processEventsE6QFlagsIN10QEventLoop17ProcessEventsFlagEE
}
{
   a5e4d8356233c542a735bf9d8e57edc8
   Memcheck:Leak
   match-leak-kinds: reachable
   fun:_Znwm
   obj:/usr/lib/x86_64-linux-gnu/libLLVM-11.so.1
   fun:_ZN4llvm12PassRegistry12registerPassERKNS_8PassInfoEb
   obj:/usr/lib/x86_64-linux-gnu/libLLVM-11.so.1
   fun:__pthread_once_slow
   fun:_ZN4llvm29initializePostRASchedulerPassERNS_12PassRegistryE
   fun:_ZN4llvm17initializeCodeGenERNS_12PassRegistryE
   fun:_ZN4llvm16TargetPassConfigC1ERNS_17LLVMTargetMachineERNS_6legacy15PassManagerBaseE
   obj:/usr/lib/x86_64-linux-gnu/libLLVM-11.so.1
   fun:_ZN4llvm17LLVMTargetMachine19addPassesToEmitFileERNS_6legacy15PassManagerBaseERNS_17raw_pwrite_streamEPS4_NS_15CodeGenFileTypeEbPNS_28MachineModuleInfoWrapperPassE
   obj:/usr/lib/x86_64-linux-gnu/dri/radeonsi_dri.so
   obj:/usr/lib/x86_64-linux-gnu/dri/radeonsi_dri.so
}
{
   b21aebb909261dd20a970509c20b87ef
   Memcheck:Leak
   match-leak-kinds: reachable
   fun:_Znwm
   obj:/usr/lib/x86_64-linux-gnu/libLLVM-11.so.1
   fun:__pthread_once_slow
   fun:_ZN4llvm38initializeScopDetectionWrapperPassPassERNS_12PassRegistryE
   obj:/usr/lib/x86_64-linux-gnu/libLLVM-11.so.1
   fun:__pthread_once_slow
   fun:_ZN4llvm32initializeScopInfoRegionPassPassERNS_12PassRegistryE
   obj:/usr/lib/x86_64-linux-gnu/libLLVM-11.so.1
   fun:__pthread_once_slow
   fun:_ZN4llvm28initializeDependenceInfoPassERNS_12PassRegistryE
   obj:/usr/lib/x86_64-linux-gnu/libLLVM-11.so.1
   fun:__pthread_once_slow
}
{
   7205946d757a2dc5d63d0ee76d6c7268
   Memcheck:Leak
   match-leak-kinds: reachable
   fun:_Znwm
   fun:_ZNSt7__cxx1112basic_stringIcSt11char_traitsIcESaIcEE9_M_assignERKS4_
   obj:/usr/lib/x86_64-linux-gnu/libLLVM-11.so.1
   obj:/usr/lib/x86_64-linux-gnu/libLLVM-11.so.1
   obj:/usr/lib/x86_64-linux-gnu/libLLVM-11.so.1
   fun:call_init.part.0
   fun:call_init
   fun:_dl_init
   fun:_dl_catch_exception
   fun:dl_open_worker
   fun:_dl_catch_exception
   fun:_dl_open
   fun:dlopen_doit
}
{
   f5a7e71e4f7061a2a6cf0671ab85aa17
   Memcheck:Leak
   match-leak-kinds: reachable
   fun:calloc
   fun:g_malloc0
   obj:/usr/lib/x86_64-linux-gnu/libglib-2.0.so.0.6600.8
   fun:g_slice_alloc
   fun:g_hash_table_new_full
   obj:/usr/lib/x86_64-linux-gnu/libglib-2.0.so.0.6600.8
   fun:call_init.part.0
   fun:call_init
   fun:_dl_init
   obj:/usr/lib/x86_64-linux-gnu/ld-2.31.so
}
{
   73bae3b31583b0cd74b106fd95d2ed89
   Memcheck:Leak
   match-leak-kinds: reachable
   fun:malloc
   fun:uhash_open_67
   fun:_ZN6icu_6727locale_set_default_internalEPKcR10UErrorCode
   fun:_ZN6icu_676Locale10getDefaultEv
   fun:_ZN6icu_676Locale4initEPKca
   fun:_ZN6icu_676LocaleC1Ev
   obj:/usr/lib/x86_64-linux-gnu/libicuuc.so.67.1
   fun:_ZN6icu_676Locale14getLocaleCacheEv
   fun:_ZN6icu_676Locale9getLocaleEi
   fun:_ZN6icu_6713CollationRoot4loadER10UErrorCode
   fun:_ZN6icu_6713CollationRoot17getRootCacheEntryER10UErrorCode
   fun:_ZN6icu_6715CollationLoader13loadTailoringERKNS_6LocaleER10UErrorCode
}
{
   74dcf86ea75510a079b48881c4ca87a9
   Memcheck:Leak
   match-leak-kinds: reachable
   fun:calloc
   fun:_XlcCreateDefaultCharSet
   fun:_XlcAddCT
   fun:_XlcInitCTInfo
   obj:/usr/lib/x86_64-linux-gnu/libX11.so.6.4.0
   obj:/usr/lib/x86_64-linux-gnu/libX11.so.6.4.0
   fun:_XlcCreateLC
   fun:_XlcUtf8Loader
   fun:_XOpenLC
   fun:XmbTextListToTextProperty
   fun:_ZN10QXcbWindow14setWindowTitleEPK14QXcbConnectionjRK7QString
   fun:_ZN14QXcbConnection19getQtSelectionOwnerEv
}
{
   62e737cc2221a96cdef10b96bb4d3835
   Memcheck:Leak
   match-leak-kinds: reachable
   fun:_Znwm
   obj:/usr/lib/x86_64-linux-gnu/libLLVM-11.so.1
   fun:_ZN4llvm12PassRegistry12registerPassERKNS_8PassInfoEb
   obj:/usr/lib/x86_64-linux-gnu/libLLVM-11.so.1
   fun:__pthread_once_slow
   fun:_ZN4llvm36initializeMachineCopyPropagationPassERNS_12PassRegistryE
   fun:_ZN4llvm17initializeCodeGenERNS_12PassRegistryE
   fun:_ZN4llvm16TargetPassConfigC1ERNS_17LLVMTargetMachineERNS_6legacy15PassManagerBaseE
   obj:/usr/lib/x86_64-linux-gnu/libLLVM-11.so.1
   fun:_ZN4llvm17LLVMTargetMachine19addPassesToEmitFileERNS_6legacy15PassManagerBaseERNS_17raw_pwrite_streamEPS4_NS_15CodeGenFileTypeEbPNS_28MachineModuleInfoWrapperPassE
   obj:/usr/lib/x86_64-linux-gnu/dri/radeonsi_dri.so
   obj:/usr/lib/x86_64-linux-gnu/dri/radeonsi_dri.so
}
{
   c526a9fbd5110e7df723e24e8bcaddda
   Memcheck:Leak
   match-leak-kinds: reachable
   fun:_Znwm
   obj:/usr/lib/x86_64-linux-gnu/libLLVM-11.so.1
   fun:_ZN4llvm12PassRegistry12registerPassERKNS_8PassInfoEb
   obj:/usr/lib/x86_64-linux-gnu/libLLVM-11.so.1
   fun:__pthread_once_slow
   fun:_ZN4llvm29initializeLiveDebugValuesPassERNS_12PassRegistryE
   fun:_ZN4llvm17initializeCodeGenERNS_12PassRegistryE
   fun:_ZN4llvm16TargetPassConfigC1ERNS_17LLVMTargetMachineERNS_6legacy15PassManagerBaseE
   obj:/usr/lib/x86_64-linux-gnu/libLLVM-11.so.1
   fun:_ZN4llvm17LLVMTargetMachine19addPassesToEmitFileERNS_6legacy15PassManagerBaseERNS_17raw_pwrite_streamEPS4_NS_15CodeGenFileTypeEbPNS_28MachineModuleInfoWrapperPassE
   obj:/usr/lib/x86_64-linux-gnu/dri/radeonsi_dri.so
   obj:/usr/lib/x86_64-linux-gnu/dri/radeonsi_dri.so
}
{
   9a3c1bcfafcd4f8a8165d22c6cbadd1a
   Memcheck:Leak
   match-leak-kinds: reachable
   fun:malloc
   fun:_XlcCreateLocaleDataBase
   obj:/usr/lib/x86_64-linux-gnu/libX11.so.6.4.0
   obj:/usr/lib/x86_64-linux-gnu/libX11.so.6.4.0
   fun:_XlcCreateLC
   fun:_XlcUtf8Loader
   fun:_XOpenLC
   fun:XmbTextListToTextProperty
   fun:_ZN10QXcbWindow14setWindowTitleEPK14QXcbConnectionjRK7QString
   fun:_ZN14QXcbConnection19getQtSelectionOwnerEv
   obj:/usr/lib/x86_64-linux-gnu/libQt6XcbQpa.so.6.2.4
   fun:_ZN14QXcbConnection17initializeScreensEv
}
{
   ec791de4f6ed72df9e240dcb5b2c6327
   Memcheck:Leak
   match-leak-kinds: reachable
   fun:_Znwm
   obj:/usr/lib/x86_64-linux-gnu/libLLVM-11.so.1
   fun:_ZN4llvm12PassRegistry12registerPassERKNS_8PassInfoEb
   obj:/usr/lib/x86_64-linux-gnu/libLLVM-11.so.1
   fun:__pthread_once_slow
   fun:_ZN4llvm36initializeTypeBasedAAWrapperPassPassERNS_12PassRegistryE
   obj:/usr/lib/x86_64-linux-gnu/libLLVM-11.so.1
   fun:__pthread_once_slow
   fun:_ZN4llvm34initializeAAResultsWrapperPassPassERNS_12PassRegistryE
   obj:/usr/lib/x86_64-linux-gnu/libLLVM-11.so.1
   fun:__pthread_once_slow
   fun:_ZN4llvm32initializeScopInfoRegionPassPassERNS_12PassRegistryE
}
{
   92a640c38f2f775846d1e54736e18ea2
   Memcheck:Leak
   match-leak-kinds: reachable
   fun:malloc
   fun:g_malloc
   fun:g_slice_alloc
   fun:g_queue_new
   fun:g_main_context_push_thread_default
   fun:_ZN27QEventDispatcherGlibPrivateC1EP13_GMainContext
   obj:/usr/lib/x86_64-linux-gnu/libQt6XcbQpa.so.6.2.4
   obj:/usr/lib/x86_64-linux-gnu/libQt6XcbQpa.so.6.2.4
   fun:_ZN22QGuiApplicationPrivate21createEventDispatcherEv
   fun:_ZN23QCoreApplicationPrivate4initEv
   fun:_ZN22QGuiApplicationPrivate4initEv
   fun:_ZN19QApplicationPrivate4initEv
}
{
   841037d2672bb7ce56fc3537487e073d
   Memcheck:Leak
   match-leak-kinds: reachable
   fun:_Znwm
   obj:/usr/lib/x86_64-linux-gnu/libLLVM-11.so.1
   fun:_ZN4llvm12PassRegistry12registerPassERKNS_8PassInfoEb
   obj:/usr/lib/x86_64-linux-gnu/libLLVM-11.so.1
   fun:__pthread_once_slow
   fun:_ZN4llvm29createLoadStoreVectorizerPassEv
   obj:/usr/lib/x86_64-linux-gnu/libLLVM-11.so.1
   fun:_ZN4llvm16TargetPassConfig13addISelPassesEv
   fun:_ZN4llvm17LLVMTargetMachine19addPassesToEmitFileERNS_6legacy15PassManagerBaseERNS_17raw_pwrite_streamEPS4_NS_15CodeGenFileTypeEbPNS_28MachineModuleInfoWrapperPassE
   obj:/usr/lib/x86_64-linux-gnu/dri/radeonsi_dri.so
   obj:/usr/lib/x86_64-linux-gnu/dri/radeonsi_dri.so
   obj:/usr/lib/x86_64-linux-gnu/dri/radeonsi_dri.so
}
{
   f8ad731ff7a40a556a47a4e0b0dcab77
   Memcheck:Leak
   match-leak-kinds: reachable
   fun:_Znwm
   obj:/usr/lib/x86_64-linux-gnu/libLLVM-11.so.1
   fun:_ZN4llvm12PassRegistry12registerPassERKNS_8PassInfoEb
   obj:/usr/lib/x86_64-linux-gnu/libLLVM-11.so.1
   fun:__pthread_once_slow
   fun:_ZN4llvm50initializeMachineOptimizationRemarkEmitterPassPassERNS_12PassRegistryE
   fun:_ZN4llvm17initializeCodeGenERNS_12PassRegistryE
   fun:_ZN4llvm16TargetPassConfigC1ERNS_17LLVMTargetMachineERNS_6legacy15PassManagerBaseE
   obj:/usr/lib/x86_64-linux-gnu/libLLVM-11.so.1
   fun:_ZN4llvm17LLVMTargetMachine19addPassesToEmitFileERNS_6legacy15PassManagerBaseERNS_17raw_pwrite_streamEPS4_NS_15CodeGenFileTypeEbPNS_28MachineModuleInfoWrapperPassE
   obj:/usr/lib/x86_64-linux-gnu/dri/radeonsi_dri.so
   obj:/usr/lib/x86_64-linux-gnu/dri/radeonsi_dri.so
}
{
   808e006d1c130b513864f3c59b1fd1d4
   Memcheck:Leak
   match-leak-kinds: reachable
   fun:_Znwm
   obj:/usr/lib/x86_64-linux-gnu/libLLVM-11.so.1
   fun:_ZN4llvm12PassRegistry12registerPassERKNS_8PassInfoEb
   obj:/usr/lib/x86_64-linux-gnu/libLLVM-11.so.1
   fun:__pthread_once_slow
   fun:_ZN4llvm25createNaryReassociatePassEv
   obj:/usr/lib/x86_64-linux-gnu/libLLVM-11.so.1
   fun:_ZN4llvm16TargetPassConfig13addISelPassesEv
   fun:_ZN4llvm17LLVMTargetMachine19addPassesToEmitFileERNS_6legacy15PassManagerBaseERNS_17raw_pwrite_streamEPS4_NS_15CodeGenFileTypeEbPNS_28MachineModuleInfoWrapperPassE
   obj:/usr/lib/x86_64-linux-gnu/dri/radeonsi_dri.so
   obj:/usr/lib/x86_64-linux-gnu/dri/radeonsi_dri.so
   obj:/usr/lib/x86_64-linux-gnu/dri/radeonsi_dri.so
}
{
   ab8fc7cc0a1b5e60ee273ebfc81b6b63
   Memcheck:Leak
   match-leak-kinds: reachable
   fun:calloc
   obj:/usr/lib/x86_64-linux-gnu/libX11.so.6.4.0
   obj:/usr/lib/x86_64-linux-gnu/libX11.so.6.4.0
   fun:_XlcCreateLocaleDataBase
   obj:/usr/lib/x86_64-linux-gnu/libX11.so.6.4.0
   obj:/usr/lib/x86_64-linux-gnu/libX11.so.6.4.0
   fun:_XlcCreateLC
   fun:_XlcUtf8Loader
   fun:_XOpenLC
   fun:XmbTextListToTextProperty
   fun:_ZN10QXcbWindow14setWindowTitleEPK14QXcbConnectionjRK7QString
   fun:_ZN14QXcbConnection19getQtSelectionOwnerEv
}
{
   44ea49de30398de52ecd8bd866013789
   Memcheck:Leak
   match-leak-kinds: reachable
   fun:_Znwm
   obj:/usr/lib/x86_64-linux-gnu/libLLVM-11.so.1
   fun:__pthread_once_slow
   fun:_ZN4llvm26createExpandReductionsPassEv
   fun:_ZN4llvm16TargetPassConfig11addIRPassesEv
   obj:/usr/lib/x86_64-linux-gnu/libLLVM-11.so.1
   fun:_ZN4llvm16TargetPassConfig13addISelPassesEv
   fun:_ZN4llvm17LLVMTargetMachine19addPassesToEmitFileERNS_6legacy15PassManagerBaseERNS_17raw_pwrite_streamEPS4_NS_15CodeGenFileTypeEbPNS_28MachineModuleInfoWrapperPassE
   obj:/usr/lib/x86_64-linux-gnu/dri/radeonsi_dri.so
   obj:/usr/lib/x86_64-linux-gnu/dri/radeonsi_dri.so
   obj:/usr/lib/x86_64-linux-gnu/dri/radeonsi_dri.so
   obj:/usr/lib/x86_64-linux-gnu/dri/radeonsi_dri.so
}
{
   e1ab10da6f33f1626051d65519b36ba8
   Memcheck:Leak
   match-leak-kinds: definite
   fun:_Znwm
   fun:_ZN6Window14button2clickedEv
   fun:_ZN6Window18qt_static_metacallEP7QObjectN11QMetaObject4CallEiPPv
   obj:/usr/lib/x86_64-linux-gnu/libQt6Core.so.6.2.4
   fun:_ZN15QAbstractButton7clickedEb
   obj:/usr/lib/x86_64-linux-gnu/libQt6Widgets.so.6.2.4
   obj:/usr/lib/x86_64-linux-gnu/libQt6Widgets.so.6.2.4
   fun:_ZN15QAbstractButton17mouseReleaseEventEP11QMouseEvent
   fun:_ZN7QWidget5eventEP6QEvent
   fun:_ZN19QApplicationPrivate13notify_helperEP7QObjectP6QEvent
   fun:_ZN12QApplication6notifyEP7QObjectP6QEvent
   fun:_ZN16QCoreApplication15notifyInternal2EP7QObjectP6QEvent
}
{
   157d20832d57c9565f0e8a0b52813345
   Memcheck:Leak
   match-leak-kinds: reachable
   fun:_Znwm
   obj:/usr/lib/x86_64-linux-gnu/libLLVM-11.so.1
   fun:_ZN4llvm12PassRegistry12registerPassERKNS_8PassInfoEb
   obj:/usr/lib/x86_64-linux-gnu/libLLVM-11.so.1
   fun:__pthread_once_slow
   fun:_ZN4llvm40initializeFixupStatepointCallerSavedPassERNS_12PassRegistryE
   fun:_ZN4llvm17initializeCodeGenERNS_12PassRegistryE
   fun:_ZN4llvm16TargetPassConfigC1ERNS_17LLVMTargetMachineERNS_6legacy15PassManagerBaseE
   obj:/usr/lib/x86_64-linux-gnu/libLLVM-11.so.1
   fun:_ZN4llvm17LLVMTargetMachine19addPassesToEmitFileERNS_6legacy15PassManagerBaseERNS_17raw_pwrite_streamEPS4_NS_15CodeGenFileTypeEbPNS_28MachineModuleInfoWrapperPassE
   obj:/usr/lib/x86_64-linux-gnu/dri/radeonsi_dri.so
   obj:/usr/lib/x86_64-linux-gnu/dri/radeonsi_dri.so
}
{
   442580faac9e15e19aa68a9aeb820608
   Memcheck:Leak
   match-leak-kinds: reachable
   fun:_Znwm
   obj:/usr/lib/x86_64-linux-gnu/libLLVM-11.so.1
   fun:__pthread_once_slow
   fun:_ZN4llvm23initializeLegalizerPassERNS_12PassRegistryE
   fun:_ZN4llvm20initializeGlobalISelERNS_12PassRegistryE
   fun:LLVMInitializeAMDGPUTarget
   obj:/usr/lib/x86_64-linux-gnu/dri/radeonsi_dri.so
   fun:__pthread_once_slow
   obj:/usr/lib/x86_64-linux-gnu/dri/radeonsi_dri.so
   obj:/usr/lib/x86_64-linux-gnu/dri/radeonsi_dri.so
   obj:/usr/lib/x86_64-linux-gnu/dri/radeonsi_dri.so
   obj:/usr/lib/x86_64-linux-gnu/dri/radeonsi_dri.so
}
{
   6e06fa7ff0c402d529bfb1f3e26cf510
   Memcheck:Leak
   match-leak-kinds: reachable
   fun:_Znwm
   obj:/usr/lib/x86_64-linux-gnu/libLLVM-11.so.1
   fun:_ZN4llvm12PassRegistry12registerPassERKNS_8PassInfoEb
   obj:/usr/lib/x86_64-linux-gnu/libLLVM-11.so.1
   fun:__pthread_once_slow
   fun:_ZN4llvm26initializeGCModuleInfoPassERNS_12PassRegistryE
   fun:_ZN4llvm17initializeCodeGenERNS_12PassRegistryE
   fun:_ZN4llvm16TargetPassConfigC1ERNS_17LLVMTargetMachineERNS_6legacy15PassManagerBaseE
   obj:/usr/lib/x86_64-linux-gnu/libLLVM-11.so.1
   fun:_ZN4llvm17LLVMTargetMachine19addPassesToEmitFileERNS_6legacy15PassManagerBaseERNS_17raw_pwrite_streamEPS4_NS_15CodeGenFileTypeEbPNS_28MachineModuleInfoWrapperPassE
   obj:/usr/lib/x86_64-linux-gnu/dri/radeonsi_dri.so
   obj:/usr/lib/x86_64-linux-gnu/dri/radeonsi_dri.so
}
{
   14455ce31cbc902fa2c1e912ce70692a
   Memcheck:Leak
   match-leak-kinds: reachable
   fun:malloc
   fun:_dl_close_worker
   fun:_dl_close
   fun:_dl_catch_exception
   fun:_dl_catch_error
   fun:dlerror_run
   fun:free_mem
   fun:__libc_freeres
   fun:_vgnU_freeres
   fun:__run_exit_handlers
   fun:exit
   fun:(below main)
}
{
   bc05151df285f106b7adbe447e9923a3
   Memcheck:Leak
   match-leak-kinds: reachable
   fun:_Znwm
   obj:/usr/lib/x86_64-linux-gnu/libLLVM-11.so.1
   fun:_ZN4llvm12PassRegistry12registerPassERKNS_8PassInfoEb
   obj:/usr/lib/x86_64-linux-gnu/libLLVM-11.so.1
   fun:__pthread_once_slow
   fun:_ZN4llvm40initializeMachineFunctionPrinterPassPassERNS_12PassRegistryE
   fun:_ZN4llvm17initializeCodeGenERNS_12PassRegistryE
   fun:_ZN4llvm16TargetPassConfigC1ERNS_17LLVMTargetMachineERNS_6legacy15PassManagerBaseE
   obj:/usr/lib/x86_64-linux-gnu/libLLVM-11.so.1
   fun:_ZN4llvm17LLVMTargetMachine19addPassesToEmitFileERNS_6legacy15PassManagerBaseERNS_17raw_pwrite_streamEPS4_NS_15CodeGenFileTypeEbPNS_28MachineModuleInfoWrapperPassE
   obj:/usr/lib/x86_64-linux-gnu/dri/radeonsi_dri.so
   obj:/usr/lib/x86_64-linux-gnu/dri/radeonsi_dri.so
}
{
   ff40d9cbbad18be1629ffe1d17c15a87
   Memcheck:Leak
   match-leak-kinds: reachable
   fun:_Znwm
   obj:/usr/lib/x86_64-linux-gnu/libLLVM-11.so.1
   fun:__pthread_once_slow
   fun:_ZN4llvm32initializeEarlyTailDuplicatePassERNS_12PassRegistryE
   fun:_ZN4llvm17initializeCodeGenERNS_12PassRegistryE
   fun:_ZN4llvm16TargetPassConfigC1ERNS_17LLVMTargetMachineERNS_6legacy15PassManagerBaseE
   obj:/usr/lib/x86_64-linux-gnu/libLLVM-11.so.1
   fun:_ZN4llvm17LLVMTargetMachine19addPassesToEmitFileERNS_6legacy15PassManagerBaseERNS_17raw_pwrite_streamEPS4_NS_15CodeGenFileTypeEbPNS_28MachineModuleInfoWrapperPassE
   obj:/usr/lib/x86_64-linux-gnu/dri/radeonsi_dri.so
   obj:/usr/lib/x86_64-linux-gnu/dri/radeonsi_dri.so
   obj:/usr/lib/x86_64-linux-gnu/dri/radeonsi_dri.so
   obj:/usr/lib/x86_64-linux-gnu/dri/radeonsi_dri.so
}
{
   2662651b6bee87d5e7726b605b109bed
   Memcheck:Leak
   match-leak-kinds: reachable
   fun:_Znwm
   obj:/usr/lib/x86_64-linux-gnu/libLLVM-11.so.1
   fun:__pthread_once_slow
   fun:_ZN4llvm33initializeMachineTraceMetricsPassERNS_12PassRegistryE
   obj:/usr/lib/x86_64-linux-gnu/libLLVM-11.so.1
   fun:__pthread_once_slow
   fun:_ZN4llvm30initializeEarlyIfConverterPassERNS_12PassRegistryE
   fun:_ZN4llvm17initializeCodeGenERNS_12PassRegistryE
   fun:_ZN4llvm16TargetPassConfigC1ERNS_17LLVMTargetMachineERNS_6legacy15PassManagerBaseE
   obj:/usr/lib/x86_64-linux-gnu/libLLVM-11.so.1
   fun:_ZN4llvm17LLVMTargetMachine19addPassesToEmitFileERNS_6legacy15PassManagerBaseERNS_17raw_pwrite_streamEPS4_NS_15CodeGenFileTypeEbPNS_28MachineModuleInfoWrapperPassE
   obj:/usr/lib/x86_64-linux-gnu/dri/radeonsi_dri.so
}
{
   2638a058d4709a41863e12217824eb6a
   Memcheck:Leak
   match-leak-kinds: reachable
   fun:_Znwm
   obj:/usr/lib/x86_64-linux-gnu/libLLVM-11.so.1
   fun:_ZN4llvm12PassRegistry12registerPassERKNS_8PassInfoEb
   obj:/usr/lib/x86_64-linux-gnu/libLLVM-11.so.1
   fun:__pthread_once_slow
   fun:_ZN4llvm39initializeTwoAddressInstructionPassPassERNS_12PassRegistryE
   fun:_ZN4llvm17initializeCodeGenERNS_12PassRegistryE
   fun:_ZN4llvm16TargetPassConfigC1ERNS_17LLVMTargetMachineERNS_6legacy15PassManagerBaseE
   obj:/usr/lib/x86_64-linux-gnu/libLLVM-11.so.1
   fun:_ZN4llvm17LLVMTargetMachine19addPassesToEmitFileERNS_6legacy15PassManagerBaseERNS_17raw_pwrite_streamEPS4_NS_15CodeGenFileTypeEbPNS_28MachineModuleInfoWrapperPassE
   obj:/usr/lib/x86_64-linux-gnu/dri/radeonsi_dri.so
   obj:/usr/lib/x86_64-linux-gnu/dri/radeonsi_dri.so
}
{
   84c91bf538e7fdc52c3379fbd5b7ae8f
   Memcheck:Leak
   match-leak-kinds: reachable
   fun:malloc
   fun:IceAuthFileName
   fun:_IceGetPoValidAuthIndices
   fun:IceOpenConnection
   fun:SmcOpenConnection
   obj:/usr/lib/x86_64-linux-gnu/libQt6XcbQpa.so.6.2.4
   fun:_ZNK15QXcbIntegration28createPlatformSessionManagerERK7QStringS2_
   obj:/usr/lib/x86_64-linux-gnu/libQt6Gui.so.6.2.4
   fun:_ZN15QSessionManagerC1EP15QGuiApplicationR7QStringS3_
   fun:_ZN22QGuiApplicationPrivate4initEv
   fun:_ZN19QApplicationPrivate4initEv
   fun:main
}
{
   57973d93e71283eddf4de7fcd1805f40
   Memcheck:Leak
   match-leak-kinds: reachable
   fun:_Znwm
   obj:/usr/lib/x86_64-linux-gnu/libLLVM-11.so.1
   fun:__pthread_once_slow
   fun:_ZN4llvm43initializeBlockFrequencyInfoWrapperPassPassERNS_12PassRegistryE
   obj:/usr/lib/x86_64-linux-gnu/libLLVM-11.so.1
   fun:__pthread_once_slow
   fun:_ZN4llvm26createConstantHoistingPassEv
   fun:_ZN4llvm16TargetPassConfig11addIRPassesEv
   obj:/usr/lib/x86_64-linux-gnu/libLLVM-11.so.1
   fun:_ZN4llvm16TargetPassConfig13addISelPassesEv
   fun:_ZN4llvm17LLVMTargetMachine19addPassesToEmitFileERNS_6legacy15PassManagerBaseERNS_17raw_pwrite_streamEPS4_NS_15CodeGenFileTypeEbPNS_28MachineModuleInfoWrapperPassE
   obj:/usr/lib/x86_64-linux-gnu/dri/radeonsi_dri.so
}
{
   49f656e00cf4d62e9e22fc47adead39e
   Memcheck:Leak
   match-leak-kinds: reachable
   fun:malloc
   obj:/usr/lib/x86_64-linux-gnu/libicuuc.so.67.1
   obj:/usr/lib/x86_64-linux-gnu/libicuuc.so.67.1
   obj:/usr/lib/x86_64-linux-gnu/libicuuc.so.67.1
   fun:_ZN6icu_6715CollationLoader14loadFromLocaleER10UErrorCode
   fun:_ZNK6icu_6712UnifiedCache4_getERKNS_12CacheKeyBaseERPKNS_12SharedObjectEPKvR10UErrorCode
   fun:_ZN6icu_6715CollationLoader13getCacheEntryER10UErrorCode
   fun:_ZN6icu_6715CollationLoader13loadTailoringERKNS_6LocaleER10UErrorCode
   fun:_ZN6icu_678Collator12makeInstanceERKNS_6LocaleER10UErrorCode
   fun:_ZN6icu_678Collator14createInstanceERKNS_6LocaleER10UErrorCode
   fun:ucol_open_67
   obj:/usr/lib/x86_64-linux-gnu/libQt6Core.so.6.2.4
}
{
   dd330be0ac40d027e04b5f3352f08352
   Memcheck:Leak
   match-leak-kinds: indirect
   fun:_Znwm
   fun:_ZN4QDirC1ERK7QString
   fun:_ZN6Window16createScreenshotEv
   fun:_ZN6Window18qt_static_metacallEP7QObjectN11QMetaObject4CallEiPPv
   obj:/usr/lib/x86_64-linux-gnu/libQt6Core.so.6.2.4
   obj:/usr/lib/x86_64-linux-gnu/libQt6Widgets.so.6.2.4
   obj:/usr/lib/x86_64-linux-gnu/libQt6Widgets.so.6.2.4
   fun:_ZN15QAbstractButton17mouseReleaseEventEP11QMouseEvent
   fun:_ZN7QWidget5eventEP6QEvent
   fun:_ZN19QApplicationPrivate13notify_helperEP7QObjectP6QEvent
   fun:_ZN12QApplication6notifyEP7QObjectP6QEvent
   fun:_ZN16QCoreApplication15notifyInternal2EP7QObjectP6QEvent
}
{
   8bbdb905f785214f35c64cb105e5342a
   Memcheck:Leak
   match-leak-kinds: reachable
   fun:_Znwm
   obj:/usr/lib/x86_64-linux-gnu/libLLVM-11.so.1
   fun:__pthread_once_slow
   fun:_ZN4llvm28initializeDependenceInfoPassERNS_12PassRegistryE
   obj:/usr/lib/x86_64-linux-gnu/libLLVM-11.so.1
   fun:__pthread_once_slow
   fun:_ZN4llvm28initializeCodeGenerationPassERNS_12PassRegistryE
   fun:_ZN5polly21initializePollyPassesERN4llvm12PassRegistryE
   obj:/usr/lib/x86_64-linux-gnu/libLLVM-11.so.1
   fun:call_init.part.0
   fun:call_init
   fun:_dl_init
   fun:_dl_catch_exception
}
{
   5878ac829b050301cd3e6fe5c952442e
   Memcheck:Leak
   match-leak-kinds: reachable
   fun:_Znwm
   obj:/usr/lib/x86_64-linux-gnu/libLLVM-11.so.1
   fun:_ZN4llvm12PassRegistry12registerPassERKNS_8PassInfoEb
   obj:/usr/lib/x86_64-linux-gnu/libLLVM-11.so.1
   fun:__pthread_once_slow
   fun:_ZN4llvm26initializeJSONImporterPassERNS_12PassRegistryE
   fun:_ZN5polly21initializePollyPassesERN4llvm12PassRegistryE
   obj:/usr/lib/x86_64-linux-gnu/libLLVM-11.so.1
   fun:call_init.part.0
   fun:call_init
   fun:_dl_init
   fun:_dl_catch_exception
   fun:dl_open_worker
}
{
   e04456a7f8acc0b8791ab8f7c93f9cfb
   Memcheck:Leak
   match-leak-kinds: reachable
   fun:malloc
   obj:/usr/lib/x86_64-linux-gnu/libfontconfig.so.1.12.0
   obj:/usr/lib/x86_64-linux-gnu/libfontconfig.so.1.12.0
   obj:/usr/lib/x86_64-linux-gnu/libfontconfig.so.1.12.0
   obj:/usr/lib/x86_64-linux-gnu/libfontconfig.so.1.12.0
   fun:FcDirCacheLoad
   fun:FcDirCacheRead
   obj:/usr/lib/x86_64-linux-gnu/libfontconfig.so.1.12.0
   fun:FcConfigBuildFonts
   obj:/usr/lib/x86_64-linux-gnu/libfontconfig.so.1.12.0
   obj:/usr/lib/x86_64-linux-gnu/libfontconfig.so.1.12.0
   obj:/usr/lib/x86_64-linux-gnu/libfontconfig.so.1.12.0
}
{
   013782c4fe3f0e9cf1b74561c2bb7ba2
   Memcheck:Leak
   match-leak-kinds: reachable
   fun:_Znwm
   obj:/usr/lib/x86_64-linux-gnu/libLLVM-11.so.1
   fun:__pthread_once_slow
   fun:_ZN4llvm35createCanonicalizeFreezeInLoopsPassEv
   fun:_ZN4llvm16TargetPassConfig11addIRPassesEv
   obj:/usr/lib/x86_64-linux-gnu/libLLVM-11.so.1
   fun:_ZN4llvm16TargetPassConfig13addISelPassesEv
   fun:_ZN4llvm17LLVMTargetMachine19addPassesToEmitFileERNS_6legacy15PassManagerBaseERNS_17raw_pwrite_streamEPS4_NS_15CodeGenFileTypeEbPNS_28MachineModuleInfoWrapperPassE
   obj:/usr/lib/x86_64-linux-gnu/dri/radeonsi_dri.so
   obj:/usr/lib/x86_64-linux-gnu/dri/radeonsi_dri.so
   obj:/usr/lib/x86_64-linux-gnu/dri/radeonsi_dri.so
   obj:/usr/lib/x86_64-linux-gnu/dri/radeonsi_dri.so
}
{
   8337c2cc67585a0fda508f78a1c2072e
   Memcheck:Leak
   match-leak-kinds: reachable
   fun:_Znwm
   obj:/usr/lib/x86_64-linux-gnu/libLLVM-11.so.1
   fun:__pthread_once_slow
   fun:_ZN4llvm40initializeFixupStatepointCallerSavedPassERNS_12PassRegistryE
   fun:_ZN4llvm17initializeCodeGenERNS_12PassRegistryE
   fun:_ZN4llvm16TargetPassConfigC1ERNS_17LLVMTargetMachineERNS_6legacy15PassManagerBaseE
   obj:/usr/lib/x86_64-linux-gnu/libLLVM-11.so.1
   fun:_ZN4llvm17LLVMTargetMachine19addPassesToEmitFileERNS_6legacy15PassManagerBaseERNS_17raw_pwrite_streamEPS4_NS_15CodeGenFileTypeEbPNS_28MachineModuleInfoWrapperPassE
   obj:/usr/lib/x86_64-linux-gnu/dri/radeonsi_dri.so
   obj:/usr/lib/x86_64-linux-gnu/dri/radeonsi_dri.so
   obj:/usr/lib/x86_64-linux-gnu/dri/radeonsi_dri.so
   obj:/usr/lib/x86_64-linux-gnu/dri/radeonsi_dri.so
}
{
   65b6f6c689874d7dfb7e1840a4980385
   Memcheck:Leak
   match-leak-kinds: reachable
   fun:_Znwm
   obj:/usr/lib/x86_64-linux-gnu/libLLVM-11.so.1
   fun:__pthread_once_slow
   fun:_ZN4llvm33createPartiallyInlineLibCallsPassEv
   fun:_ZN4llvm16TargetPassConfig11addIRPassesEv
   obj:/usr/lib/x86_64-linux-gnu/libLLVM-11.so.1
   fun:_ZN4llvm16TargetPassConfig13addISelPassesEv
   fun:_ZN4llvm17LLVMTargetMachine19addPassesToEmitFileERNS_6legacy15PassManagerBaseERNS_17raw_pwrite_streamEPS4_NS_15CodeGenFileTypeEbPNS_28MachineModuleInfoWrapperPassE
   obj:/usr/lib/x86_64-linux-gnu/dri/radeonsi_dri.so
   obj:/usr/lib/x86_64-linux-gnu/dri/radeonsi_dri.so
   obj:/usr/lib/x86_64-linux-gnu/dri/radeonsi_dri.so
   obj:/usr/lib/x86_64-linux-gnu/dri/radeonsi_dri.so
}
{
   8b824bddc70fc9ce23bc2e6784a01b94
   Memcheck:Leak
   match-leak-kinds: reachable
   fun:_Znwm
   obj:/usr/lib/x86_64-linux-gnu/libLLVM-11.so.1
   fun:__pthread_once_slow
   fun:_ZN4llvm25initializeLazyBFIPassPassERNS_12PassRegistryE
   obj:/usr/lib/x86_64-linux-gnu/libLLVM-11.so.1
   fun:__pthread_once_slow
   fun:_ZN4llvm50initializeOptimizationRemarkEmitterWrapperPassPassERNS_12PassRegistryE
   obj:/usr/lib/x86_64-linux-gnu/libLLVM-11.so.1
   fun:__pthread_once_slow
   fun:_ZN4llvm38initializeScopDetectionWrapperPassPassERNS_12PassRegistryE
   obj:/usr/lib/x86_64-linux-gnu/libLLVM-11.so.1
   fun:__pthread_once_slow
}
{
   96af7b43102c3a5607ea176068af851c
   Memcheck:Leak
   match-leak-kinds: reachable
   fun:malloc
   obj:/usr/lib/x86_64-linux-gnu/libX11.so.6.4.0
   fun:_XlcCreateLC
   fun:_XlcUtf8Loader
   fun:_XOpenLC
   fun:XmbTextListToTextProperty
   fun:_ZN10QXcbWindow14setWindowTitleEPK14QXcbConnectionjRK7QString
   fun:_ZN14QXcbConnection19getQtSelectionOwnerEv
   obj:/usr/lib/x86_64-linux-gnu/libQt6XcbQpa.so.6.2.4
   fun:_ZN14QXcbConnection17initializeScreensEv
   fun:_ZN14QXcbConnectionC1EP19QXcbNativeInterfacebjPKc
   fun:_ZN15QXcbIntegrationC1ERK5QListI7QStringERiPPc
}
{
   c192953699e139d137f16a869a128931
   Memcheck:Leak
   match-leak-kinds: reachable
   fun:_Znwm
   obj:/usr/lib/x86_64-linux-gnu/libLLVM-11.so.1
   fun:_ZN4llvm12PassRegistry12registerPassERKNS_8PassInfoEb
   obj:/usr/lib/x86_64-linux-gnu/libLLVM-11.so.1
   fun:__pthread_once_slow
   fun:_ZN4llvm33initializeXRayInstrumentationPassERNS_12PassRegistryE
   fun:_ZN4llvm16TargetPassConfigC1ERNS_17LLVMTargetMachineERNS_6legacy15PassManagerBaseE
   obj:/usr/lib/x86_64-linux-gnu/libLLVM-11.so.1
   fun:_ZN4llvm17LLVMTargetMachine19addPassesToEmitFileERNS_6legacy15PassManagerBaseERNS_17raw_pwrite_streamEPS4_NS_15CodeGenFileTypeEbPNS_28MachineModuleInfoWrapperPassE
   obj:/usr/lib/x86_64-linux-gnu/dri/radeonsi_dri.so
   obj:/usr/lib/x86_64-linux-gnu/dri/radeonsi_dri.so
   obj:/usr/lib/x86_64-linux-gnu/dri/radeonsi_dri.so
}
{
   c42aae72d02cb13c8b47332411d571c3
   Memcheck:Leak
   match-leak-kinds: reachable
   fun:_Znwm
   obj:/usr/lib/x86_64-linux-gnu/libLLVM-11.so.1
   fun:__pthread_once_slow
   fun:_ZN4llvm42initializeTargetLibraryInfoWrapperPassPassERNS_12PassRegistryE
   obj:/usr/lib/x86_64-linux-gnu/libLLVM-11.so.1
   fun:__pthread_once_slow
   fun:_ZN4llvm32initializeBasicAAWrapperPassPassERNS_12PassRegistryE
   obj:/usr/lib/x86_64-linux-gnu/libLLVM-11.so.1
   fun:__pthread_once_slow
   fun:_ZN4llvm34initializeAAResultsWrapperPassPassERNS_12PassRegistryE
   obj:/usr/lib/x86_64-linux-gnu/libLLVM-11.so.1
   fun:__pthread_once_slow
}
{
   bf69db4b26a42448d013ed4bb70241ee
   Memcheck:Leak
   match-leak-kinds: reachable
   fun:malloc
   fun:_ZN6icu_677UMemorynwEm
   fun:_ZNK6icu_6714LocaleCacheKeyINS_19CollationCacheEntryEE5cloneEv
   fun:_ZNK6icu_6712UnifiedCache7_putNewERKNS_12CacheKeyBaseEPKNS_12SharedObjectE10UErrorCodeRS7_
   fun:_ZNK6icu_6712UnifiedCache5_pollERKNS_12CacheKeyBaseERPKNS_12SharedObjectER10UErrorCode
   fun:_ZNK6icu_6712UnifiedCache4_getERKNS_12CacheKeyBaseERPKNS_12SharedObjectEPKvR10UErrorCode
   fun:_ZN6icu_6715CollationLoader13getCacheEntryER10UErrorCode
   fun:_ZN6icu_6715CollationLoader14loadFromLocaleER10UErrorCode
   fun:_ZNK6icu_6712UnifiedCache4_getERKNS_12CacheKeyBaseERPKNS_12SharedObjectEPKvR10UErrorCode
   fun:_ZN6icu_6715CollationLoader13getCacheEntryER10UErrorCode
   fun:_ZN6icu_6715CollationLoader13loadTailoringERKNS_6LocaleER10UErrorCode
   fun:_ZN6icu_678Collator12makeInstanceERKNS_6LocaleER10UErrorCode
}
{
   73e15425807a49f0d4cee84c36490055
   Memcheck:Leak
   match-leak-kinds: reachable
   fun:_Znwm
   obj:/usr/lib/x86_64-linux-gnu/libLLVM-11.so.1
   fun:__pthread_once_slow
   fun:_ZN4llvm24createRewriteSymbolsPassEv
   fun:_ZN4llvm16TargetPassConfig17addCodeGenPrepareEv
   obj:/usr/lib/x86_64-linux-gnu/libLLVM-11.so.1
   fun:_ZN4llvm16TargetPassConfig13addISelPassesEv
   fun:_ZN4llvm17LLVMTargetMachine19addPassesToEmitFileERNS_6legacy15PassManagerBaseERNS_17raw_pwrite_streamEPS4_NS_15CodeGenFileTypeEbPNS_28MachineModuleInfoWrapperPassE
   obj:/usr/lib/x86_64-linux-gnu/dri/radeonsi_dri.so
   obj:/usr/lib/x86_64-linux-gnu/dri/radeonsi_dri.so
   obj:/usr/lib/x86_64-linux-gnu/dri/radeonsi_dri.so
   obj:/usr/lib/x86_64-linux-gnu/dri/radeonsi_dri.so
}
{
   eec0ab0f1d5150f73ad009442384ef77
   Memcheck:Leak
   match-leak-kinds: reachable
   fun:calloc
   fun:_XlcCreateDefaultCharSet
   obj:/usr/lib/x86_64-linux-gnu/libX11.so.6.4.0
   obj:/usr/lib/x86_64-linux-gnu/libX11.so.6.4.0
   fun:_XlcCreateLC
   fun:_XlcUtf8Loader
   fun:_XOpenLC
   fun:XmbTextListToTextProperty
   fun:_ZN10QXcbWindow14setWindowTitleEPK14QXcbConnectionjRK7QString
   fun:_ZN14QXcbConnection19getQtSelectionOwnerEv
   obj:/usr/lib/x86_64-linux-gnu/libQt6XcbQpa.so.6.2.4
   fun:_ZN14QXcbConnection17initializeScreensEv
}
{
   21fd569250fa71817461af7ece3ad989
   Memcheck:Leak
   match-leak-kinds: reachable
   fun:_Znwm
   obj:/usr/lib/x86_64-linux-gnu/libLLVM-11.so.1
   fun:_ZN4llvm12PassRegistry12registerPassERKNS_8PassInfoEb
   obj:/usr/lib/x86_64-linux-gnu/libLLVM-11.so.1
   fun:__pthread_once_slow
   fun:_ZN4llvm26initializeWinEHPreparePassERNS_12PassRegistryE
   fun:_ZN4llvm17initializeCodeGenERNS_12PassRegistryE
   fun:_ZN4llvm16TargetPassConfigC1ERNS_17LLVMTargetMachineERNS_6legacy15PassManagerBaseE
   obj:/usr/lib/x86_64-linux-gnu/libLLVM-11.so.1
   fun:_ZN4llvm17LLVMTargetMachine19addPassesToEmitFileERNS_6legacy15PassManagerBaseERNS_17raw_pwrite_streamEPS4_NS_15CodeGenFileTypeEbPNS_28MachineModuleInfoWrapperPassE
   obj:/usr/lib/x86_64-linux-gnu/dri/radeonsi_dri.so
   obj:/usr/lib/x86_64-linux-gnu/dri/radeonsi_dri.so
}
{
   4788edd0d519d8b0ab4b15657c2568ae
   Memcheck:Leak
   match-leak-kinds: reachable
   fun:_Znwm
   obj:/usr/lib/x86_64-linux-gnu/libLLVM-11.so.1
   fun:_ZNK4llvm17ManagedStaticBase21RegisterManagedStaticEPFPvvEPFvS1_E
   fun:_ZN4llvm2cl14OptionCategory16registerCategoryEv
   obj:/usr/lib/x86_64-linux-gnu/libLLVM-11.so.1
   fun:call_init.part.0
   fun:call_init
   fun:_dl_init
   fun:_dl_catch_exception
   fun:dl_open_worker
   fun:_dl_catch_exception
   fun:_dl_open
   fun:dlopen_doit
}
{
   a0f6076687d4d6f08717b846ac776878
   Memcheck:Leak
   match-leak-kinds: reachable
   fun:malloc
   fun:_XlcCreateDefaultCharSet
   obj:/usr/lib/x86_64-linux-gnu/libX11.so.6.4.0
   obj:/usr/lib/x86_64-linux-gnu/libX11.so.6.4.0
   fun:_XlcCreateLC
   fun:_XlcUtf8Loader
   fun:_XOpenLC
   fun:XmbTextListToTextProperty
   fun:_ZN10QXcbWindow14setWindowTitleEPK14QXcbConnectionjRK7QString
   fun:_ZN14QXcbConnection19getQtSelectionOwnerEv
   obj:/usr/lib/x86_64-linux-gnu/libQt6XcbQpa.so.6.2.4
   fun:_ZN14QXcbConnection17initializeScreensEv
}
{
   04e2f557bbb0f6304e24b133356ba0bb
   Memcheck:Leak
   match-leak-kinds: reachable
   fun:_Znwm
   obj:/usr/lib/x86_64-linux-gnu/libLLVM-11.so.1
   fun:__pthread_once_slow
   fun:_ZN4llvm44initializeTargetTransformInfoWrapperPassPassERNS_12PassRegistryE
   obj:/usr/lib/x86_64-linux-gnu/libLLVM-11.so.1
   fun:__pthread_once_slow
   fun:_ZN4llvm34initializeIslScheduleOptimizerPassERNS_12PassRegistryE
   fun:_ZN5polly21initializePollyPassesERN4llvm12PassRegistryE
   obj:/usr/lib/x86_64-linux-gnu/libLLVM-11.so.1
   fun:call_init.part.0
   fun:call_init
   fun:_dl_init
   fun:_dl_catch_exception
}
{
   6a2910884e87bda07c7028fe3c3a66d6
   Memcheck:Leak
   match-leak-kinds: reachable
   fun:_Znwm
   obj:/usr/lib/x86_64-linux-gnu/libLLVM-11.so.1
   fun:_ZN4llvm12PassRegistry12registerPassERKNS_8PassInfoEb
   obj:/usr/lib/x86_64-linux-gnu/libLLVM-11.so.1
   fun:__pthread_once_slow
   fun:_ZN4llvm26initializeOptimizePHIsPassERNS_12PassRegistryE
   fun:_ZN4llvm17initializeCodeGenERNS_12PassRegistryE
   fun:_ZN4llvm16TargetPassConfigC1ERNS_17LLVMTargetMachineERNS_6legacy15PassManagerBaseE
   obj:/usr/lib/x86_64-linux-gnu/libLLVM-11.so.1
   fun:_ZN4llvm17LLVMTargetMachine19addPassesToEmitFileERNS_6legacy15PassManagerBaseERNS_17raw_pwrite_streamEPS4_NS_15CodeGenFileTypeEbPNS_28MachineModuleInfoWrapperPassE
   obj:/usr/lib/x86_64-linux-gnu/dri/radeonsi_dri.so
   obj:/usr/lib/x86_64-linux-gnu/dri/radeonsi_dri.so
}
{
   ad3aabc57f9b857140994c63d963b0f5
   Memcheck:Leak
   match-leak-kinds: reachable
   fun:_Znwm
   obj:/usr/lib/x86_64-linux-gnu/libLLVM-11.so.1
   fun:__pthread_once_slow
   fun:_ZN4llvm18createEarlyCSEPassEb
   obj:/usr/lib/x86_64-linux-gnu/libLLVM-11.so.1
   fun:_ZN4llvm16TargetPassConfig13addISelPassesEv
   fun:_ZN4llvm17LLVMTargetMachine19addPassesToEmitFileERNS_6legacy15PassManagerBaseERNS_17raw_pwrite_streamEPS4_NS_15CodeGenFileTypeEbPNS_28MachineModuleInfoWrapperPassE
   obj:/usr/lib/x86_64-linux-gnu/dri/radeonsi_dri.so
   obj:/usr/lib/x86_64-linux-gnu/dri/radeonsi_dri.so
   obj:/usr/lib/x86_64-linux-gnu/dri/radeonsi_dri.so
   obj:/usr/lib/x86_64-linux-gnu/dri/radeonsi_dri.so
   obj:/usr/lib/x86_64-linux-gnu/dri/radeonsi_dri.so
}
{
   30519cb692f5d2e4302222259ad658f8
   Memcheck:Leak
   match-leak-kinds: reachable
   fun:_Znwm
   obj:/usr/lib/x86_64-linux-gnu/libLLVM-11.so.1
   fun:_ZN4llvm12PassRegistry12registerPassERKNS_8PassInfoEb
   obj:/usr/lib/x86_64-linux-gnu/libLLVM-11.so.1
   fun:__pthread_once_slow
   fun:_ZN4llvm30initializeLCSSAWrapperPassPassERNS_12PassRegistryE
   fun:_ZN4llvm22initializeLoopPassPassERNS_12PassRegistryE
   obj:/usr/lib/x86_64-linux-gnu/libLLVM-11.so.1
   fun:__pthread_once_slow
   fun:_ZN4llvm14createLICMPassEv
   fun:LLVMAddLICMPass
   obj:/usr/lib/x86_64-linux-gnu/dri/radeonsi_dri.so
}
{
   6c7a19f176aa9607586678afa76faccc
   Memcheck:Leak
   match-leak-kinds: reachable
   fun:_Znwm
   obj:/usr/lib/x86_64-linux-gnu/libLLVM-11.so.1
   fun:__pthread_once_slow
   fun:_ZN4llvm32initializeRewriteByrefParamsPassERNS_12PassRegistryE
   fun:_ZN5polly21initializePollyPassesERN4llvm12PassRegistryE
   obj:/usr/lib/x86_64-linux-gnu/libLLVM-11.so.1
   fun:call_init.part.0
   fun:call_init
   fun:_dl_init
   fun:_dl_catch_exception
   fun:dl_open_worker
   fun:_dl_catch_exception
   fun:_dl_open
}
{
   dc4752c58dd82308c118ee5df5291ee7
   Memcheck:Leak
   match-leak-kinds: reachable
   fun:_Znwm
   obj:/usr/lib/x86_64-linux-gnu/libLLVM-11.so.1
   fun:__pthread_once_slow
   fun:_ZN4llvm32initializeLiveDebugVariablesPassERNS_12PassRegistryE
   fun:_ZN4llvm17initializeCodeGenERNS_12PassRegistryE
   fun:_ZN4llvm16TargetPassConfigC1ERNS_17LLVMTargetMachineERNS_6legacy15PassManagerBaseE
   obj:/usr/lib/x86_64-linux-gnu/libLLVM-11.so.1
   fun:_ZN4llvm17LLVMTargetMachine19addPassesToEmitFileERNS_6legacy15PassManagerBaseERNS_17raw_pwrite_streamEPS4_NS_15CodeGenFileTypeEbPNS_28MachineModuleInfoWrapperPassE
   obj:/usr/lib/x86_64-linux-gnu/dri/radeonsi_dri.so
   obj:/usr/lib/x86_64-linux-gnu/dri/radeonsi_dri.so
   obj:/usr/lib/x86_64-linux-gnu/dri/radeonsi_dri.so
   obj:/usr/lib/x86_64-linux-gnu/dri/radeonsi_dri.so
}
{
   d0b57a836d0236eaf0d8d54e3a3448ce
   Memcheck:Leak
   match-leak-kinds: reachable
   fun:_Znwm
   obj:/usr/lib/x86_64-linux-gnu/libLLVM-11.so.1
   fun:__pthread_once_slow
   fun:_ZN4llvm26initializeJSONImporterPassERNS_12PassRegistryE
   fun:_ZN5polly21initializePollyPassesERN4llvm12PassRegistryE
   obj:/usr/lib/x86_64-linux-gnu/libLLVM-11.so.1
   fun:call_init.part.0
   fun:call_init
   fun:_dl_init
   fun:_dl_catch_exception
   fun:dl_open_worker
   fun:_dl_catch_exception
   fun:_dl_open
}
{
   f4f3dcec7e48e7bc65ba0b73882a4dcd
   Memcheck:Leak
   match-leak-kinds: reachable
   fun:_Znwm
   obj:/usr/lib/x86_64-linux-gnu/libLLVM-11.so.1
   fun:_ZN4llvm12PassRegistry12registerPassERKNS_8PassInfoEb
   obj:/usr/lib/x86_64-linux-gnu/libLLVM-11.so.1
   fun:__pthread_once_slow
   fun:_ZN4llvm27initializeWasmEHPreparePassERNS_12PassRegistryE
   fun:_ZN4llvm17initializeCodeGenERNS_12PassRegistryE
   fun:_ZN4llvm16TargetPassConfigC1ERNS_17LLVMTargetMachineERNS_6legacy15PassManagerBaseE
   obj:/usr/lib/x86_64-linux-gnu/libLLVM-11.so.1
   fun:_ZN4llvm17LLVMTargetMachine19addPassesToEmitFileERNS_6legacy15PassManagerBaseERNS_17raw_pwrite_streamEPS4_NS_15CodeGenFileTypeEbPNS_28MachineModuleInfoWrapperPassE
   obj:/usr/lib/x86_64-linux-gnu/dri/radeonsi_dri.so
   obj:/usr/lib/x86_64-linux-gnu/dri/radeonsi_dri.so
}
{
   a2319db5d7179cdb8799fabd5adb0c94
   Memcheck:Leak
   match-leak-kinds: reachable
   fun:_Znwm
   obj:/usr/lib/x86_64-linux-gnu/libLLVM-11.so.1
   fun:__pthread_once_slow
   fun:_ZN4llvm47initializeLazyMachineBlockFrequencyInfoPassPassERNS_12PassRegistryE
   obj:/usr/lib/x86_64-linux-gnu/libLLVM-11.so.1
   fun:__pthread_once_slow
   fun:_ZN4llvm50initializeMachineOptimizationRemarkEmitterPassPassERNS_12PassRegistryE
   fun:_ZN4llvm17initializeCodeGenERNS_12PassRegistryE
   fun:_ZN4llvm16TargetPassConfigC1ERNS_17LLVMTargetMachineERNS_6legacy15PassManagerBaseE
   obj:/usr/lib/x86_64-linux-gnu/libLLVM-11.so.1
   fun:_ZN4llvm17LLVMTargetMachine19addPassesToEmitFileERNS_6legacy15PassManagerBaseERNS_17raw_pwrite_streamEPS4_NS_15CodeGenFileTypeEbPNS_28MachineModuleInfoWrapperPassE
   obj:/usr/lib/x86_64-linux-gnu/dri/radeonsi_dri.so
}
{
   7b792d81edb768336d777acc0df1e11b
   Memcheck:Leak
   match-leak-kinds: reachable
   fun:_Znwm
   obj:/usr/lib/x86_64-linux-gnu/libLLVM-11.so.1
   fun:_ZN4llvm12PassRegistry12registerPassERKNS_8PassInfoEb
   obj:/usr/lib/x86_64-linux-gnu/libLLVM-11.so.1
   fun:__pthread_once_slow
   fun:_ZN4llvm39initializeMachineBlockFrequencyInfoPassERNS_12PassRegistryE
   obj:/usr/lib/x86_64-linux-gnu/libLLVM-11.so.1
   fun:__pthread_once_slow
   fun:_ZN4llvm27initializeRegBankSelectPassERNS_12PassRegistryE
   fun:_ZN4llvm20initializeGlobalISelERNS_12PassRegistryE
   fun:LLVMInitializeAMDGPUTarget
   obj:/usr/lib/x86_64-linux-gnu/dri/radeonsi_dri.so
}
{
   b2f8ba78681097f0630d0f90c65ce11d
   Memcheck:Leak
   match-leak-kinds: reachable
   fun:_Znwm
   obj:/usr/lib/x86_64-linux-gnu/libLLVM-11.so.1
   fun:_ZN4llvm12PassRegistry12registerPassERKNS_8PassInfoEb
   obj:/usr/lib/x86_64-linux-gnu/libLLVM-11.so.1
   fun:__pthread_once_slow
   fun:_ZN4llvm28MachineModuleInfoWrapperPassC1EPKNS_17LLVMTargetMachineE
   fun:_ZN4llvm17LLVMTargetMachine19addPassesToEmitFileERNS_6legacy15PassManagerBaseERNS_17raw_pwrite_streamEPS4_NS_15CodeGenFileTypeEbPNS_28MachineModuleInfoWrapperPassE
   obj:/usr/lib/x86_64-linux-gnu/dri/radeonsi_dri.so
   obj:/usr/lib/x86_64-linux-gnu/dri/radeonsi_dri.so
   obj:/usr/lib/x86_64-linux-gnu/dri/radeonsi_dri.so
   obj:/usr/lib/x86_64-linux-gnu/dri/radeonsi_dri.so
   obj:/usr/lib/x86_64-linux-gnu/dri/radeonsi_dri.so
}
{
   84e6f1e63bf6a43d8cbfa3609f801079
   Memcheck:Leak
   match-leak-kinds: reachable
   fun:_Znwm
   obj:/usr/lib/x86_64-linux-gnu/libLLVM-11.so.1
   fun:__pthread_once_slow
   fun:_ZN4llvm29initializeCodePreparationPassERNS_12PassRegistryE
   fun:_ZN5polly21initializePollyPassesERN4llvm12PassRegistryE
   obj:/usr/lib/x86_64-linux-gnu/libLLVM-11.so.1
   fun:call_init.part.0
   fun:call_init
   fun:_dl_init
   fun:_dl_catch_exception
   fun:dl_open_worker
   fun:_dl_catch_exception
   fun:_dl_open
}
{
   44075c4d45eabb8f8e173dfede4ca999
   Memcheck:Leak
   match-leak-kinds: reachable
   fun:_Znwm
   obj:/usr/lib/x86_64-linux-gnu/libLLVM-11.so.1
   fun:_ZNK4llvm17ManagedStaticBase21RegisterManagedStaticEPFPvvEPFvS1_E
   fun:_ZN4llvm6SDNode16getValueTypeListENS_3EVTE
   fun:_ZN4llvm12SelectionDAGC1ERKNS_13TargetMachineENS_10CodeGenOpt5LevelE
   fun:_ZN4llvm16SelectionDAGISelC2ERNS_13TargetMachineENS_10CodeGenOpt5LevelE
   obj:/usr/lib/x86_64-linux-gnu/libLLVM-11.so.1
   obj:/usr/lib/x86_64-linux-gnu/libLLVM-11.so.1
   fun:_ZN4llvm16TargetPassConfig17addCoreISelPassesEv
   fun:_ZN4llvm16TargetPassConfig13addISelPassesEv
   fun:_ZN4llvm17LLVMTargetMachine19addPassesToEmitFileERNS_6legacy15PassManagerBaseERNS_17raw_pwrite_streamEPS4_NS_15CodeGenFileTypeEbPNS_28MachineModuleInfoWrapperPassE
   obj:/usr/lib/x86_64-linux-gnu/dri/radeonsi_dri.so
}
{
   343b7808cbec49eabe28807d8eaede98
   Memcheck:Leak
   match-leak-kinds: reachable
   fun:_Znwm
   obj:/usr/lib/x86_64-linux-gnu/libLLVM-11.so.1
   fun:_ZN4llvm12PassRegistry12registerPassERKNS_8PassInfoEb
   obj:/usr/lib/x86_64-linux-gnu/libLLVM-11.so.1
   fun:__pthread_once_slow
   fun:_ZN4llvm33initializeMachineVerifierPassPassERNS_12PassRegistryE
   fun:_ZN4llvm17initializeCodeGenERNS_12PassRegistryE
   fun:_ZN4llvm16TargetPassConfigC1ERNS_17LLVMTargetMachineERNS_6legacy15PassManagerBaseE
   obj:/usr/lib/x86_64-linux-gnu/libLLVM-11.so.1
   fun:_ZN4llvm17LLVMTargetMachine19addPassesToEmitFileERNS_6legacy15PassManagerBaseERNS_17raw_pwrite_streamEPS4_NS_15CodeGenFileTypeEbPNS_28MachineModuleInfoWrapperPassE
   obj:/usr/lib/x86_64-linux-gnu/dri/radeonsi_dri.so
   obj:/usr/lib/x86_64-linux-gnu/dri/radeonsi_dri.so
}
{
   16ec92d259c98279f8f1cdb450958a0f
   Memcheck:Leak
   match-leak-kinds: reachable
   fun:_Znwm
   obj:/usr/lib/x86_64-linux-gnu/libLLVM-11.so.1
   fun:__pthread_once_slow
   fun:_ZN4llvm35initializeMaximalStaticExpanderPassERNS_12PassRegistryE
   fun:_ZN5polly21initializePollyPassesERN4llvm12PassRegistryE
   obj:/usr/lib/x86_64-linux-gnu/libLLVM-11.so.1
   fun:call_init.part.0
   fun:call_init
   fun:_dl_init
   fun:_dl_catch_exception
   fun:dl_open_worker
   fun:_dl_catch_exception
   fun:_dl_open
}
{
   0d595fd93628a2b714976d490ccd99f1
   Memcheck:Leak
   match-leak-kinds: reachable
   fun:calloc
   obj:/usr/lib/x86_64-linux-gnu/libdbus-1.so.3.19.13
   fun:dbus_message_new_error
   obj:/usr/lib/x86_64-linux-gnu/libdbus-1.so.3.19.13
   fun:dbus_connection_send_with_reply
   fun:dbus_connection_send_with_reply_and_block
   fun:dbus_bus_register
   obj:/usr/lib/x86_64-linux-gnu/libdbus-1.so.3.19.13
   obj:/usr/lib/x86_64-linux-gnu/libQt6DBus.so.6.2.4
   fun:_ZN7QObject5eventEP6QEvent
   fun:_ZN16QCoreApplication15notifyInternal2EP7QObjectP6QEvent
   fun:_ZN23QCoreApplicationPrivate16sendPostedEventsEP7QObjectiP11QThreadData
}
{
   2cac13c2c80291d2dd452ce45ff278a1
   Memcheck:Leak
   match-leak-kinds: reachable
   fun:_Znwm
   obj:/usr/lib/x86_64-linux-gnu/libLLVM-11.so.1
   fun:_ZN4llvm12PassRegistry12registerPassERKNS_8PassInfoEb
   obj:/usr/lib/x86_64-linux-gnu/libLLVM-11.so.1
   fun:__pthread_once_slow
   fun:_ZN4llvm32initializeLiveDebugVariablesPassERNS_12PassRegistryE
   fun:_ZN4llvm17initializeCodeGenERNS_12PassRegistryE
   fun:_ZN4llvm16TargetPassConfigC1ERNS_17LLVMTargetMachineERNS_6legacy15PassManagerBaseE
   obj:/usr/lib/x86_64-linux-gnu/libLLVM-11.so.1
   fun:_ZN4llvm17LLVMTargetMachine19addPassesToEmitFileERNS_6legacy15PassManagerBaseERNS_17raw_pwrite_streamEPS4_NS_15CodeGenFileTypeEbPNS_28MachineModuleInfoWrapperPassE
   obj:/usr/lib/x86_64-linux-gnu/dri/radeonsi_dri.so
   obj:/usr/lib/x86_64-linux-gnu/dri/radeonsi_dri.so
}
{
   1b301e11e59c287c67f6bc865ccee7c2
   Memcheck:Leak
   match-leak-kinds: reachable
   fun:_Znwm
   obj:/usr/lib/x86_64-linux-gnu/libLLVM-11.so.1
   fun:_ZN4llvm12PassRegistry12registerPassERKNS_8PassInfoEb
   obj:/usr/lib/x86_64-linux-gnu/libLLVM-11.so.1
   fun:__pthread_once_slow
   fun:_ZN4llvm31initializeInstructionSelectPassERNS_12PassRegistryE
   fun:LLVMInitializeAMDGPUTarget
   obj:/usr/lib/x86_64-linux-gnu/dri/radeonsi_dri.so
   fun:__pthread_once_slow
   obj:/usr/lib/x86_64-linux-gnu/dri/radeonsi_dri.so
   obj:/usr/lib/x86_64-linux-gnu/dri/radeonsi_dri.so
   obj:/usr/lib/x86_64-linux-gnu/dri/radeonsi_dri.so
}
{
   d0cf51165f3c883742235aaf0f2faef2
   Memcheck:Leak
   match-leak-kinds: reachable
   fun:_Znwm
   obj:/usr/lib/x86_64-linux-gnu/libLLVM-11.so.1
   fun:__pthread_once_slow
   obj:/usr/lib/x86_64-linux-gnu/libLLVM-11.so.1
   fun:_ZN4llvm27createCFGSimplificationPassEjbbbbSt8functionIFbRKNS_8FunctionEEE
   fun:LLVMAddCFGSimplificationPass
   obj:/usr/lib/x86_64-linux-gnu/dri/radeonsi_dri.so
   obj:/usr/lib/x86_64-linux-gnu/dri/radeonsi_dri.so
   obj:/usr/lib/x86_64-linux-gnu/dri/radeonsi_dri.so
   obj:/usr/lib/x86_64-linux-gnu/dri/radeonsi_dri.so
   obj:/usr/lib/x86_64-linux-gnu/dri/radeonsi_dri.so
   fun:start_thread
}
{
   44c190c45a383cd33fe9fda5edbaa061
   Memcheck:Leak
   match-leak-kinds: reachable
   fun:_Znwm
   obj:/usr/lib/x86_64-linux-gnu/libLLVM-11.so.1
   fun:_ZN4llvm12PassRegistry12registerPassERKNS_8PassInfoEb
   obj:/usr/lib/x86_64-linux-gnu/libLLVM-11.so.1
   fun:__pthread_once_slow
   fun:_ZN4llvm33initializeLoopInfoWrapperPassPassERNS_12PassRegistryE
   obj:/usr/lib/x86_64-linux-gnu/libLLVM-11.so.1
   fun:__pthread_once_slow
   fun:_ZN4llvm40initializeScalarEvolutionWrapperPassPassERNS_12PassRegistryE
   obj:/usr/lib/x86_64-linux-gnu/libLLVM-11.so.1
   fun:__pthread_once_slow
   fun:_ZN4llvm31initializeSCEVAAWrapperPassPassERNS_12PassRegistryE
}
{
   345d06710c0116aa33f75e4b54224896
   Memcheck:Leak
   match-leak-kinds: reachable
   fun:_Znwm
   obj:/usr/lib/x86_64-linux-gnu/libLLVM-11.so.1
   fun:__pthread_once_slow
   fun:_ZN4llvm30initializeCFIInstrInserterPassERNS_12PassRegistryE
   fun:_ZN4llvm17initializeCodeGenERNS_12PassRegistryE
   fun:_ZN4llvm16TargetPassConfigC1ERNS_17LLVMTargetMachineERNS_6legacy15PassManagerBaseE
   obj:/usr/lib/x86_64-linux-gnu/libLLVM-11.so.1
   fun:_ZN4llvm17LLVMTargetMachine19addPassesToEmitFileERNS_6legacy15PassManagerBaseERNS_17raw_pwrite_streamEPS4_NS_15CodeGenFileTypeEbPNS_28MachineModuleInfoWrapperPassE
   obj:/usr/lib/x86_64-linux-gnu/dri/radeonsi_dri.so
   obj:/usr/lib/x86_64-linux-gnu/dri/radeonsi_dri.so
   obj:/usr/lib/x86_64-linux-gnu/dri/radeonsi_dri.so
   obj:/usr/lib/x86_64-linux-gnu/dri/radeonsi_dri.so
}
{
   67dab64f949b9799183fec17db439393
   Memcheck:Leak
   match-leak-kinds: reachable
   fun:_Znwm
   obj:/usr/lib/x86_64-linux-gnu/libLLVM-11.so.1
   fun:_ZN4llvm12PassRegistry12registerPassERKNS_8PassInfoEb
   obj:/usr/lib/x86_64-linux-gnu/libLLVM-11.so.1
   fun:__pthread_once_slow
   fun:_ZN4llvm24InstructionCombiningPassC1Ev
   fun:LLVMAddInstructionCombiningPass
   obj:/usr/lib/x86_64-linux-gnu/dri/radeonsi_dri.so
   obj:/usr/lib/x86_64-linux-gnu/dri/radeonsi_dri.so
   obj:/usr/lib/x86_64-linux-gnu/dri/radeonsi_dri.so
   obj:/usr/lib/x86_64-linux-gnu/dri/radeonsi_dri.so
   obj:/usr/lib/x86_64-linux-gnu/dri/radeonsi_dri.so
}
{
   2c7b4b1e97c62d25294e2c44e8df69af
   Memcheck:Leak
   match-leak-kinds: reachable
   fun:_Znwm
   obj:/usr/lib/x86_64-linux-gnu/libLLVM-11.so.1
   fun:__pthread_once_slow
   fun:_ZN4llvm36initializeAssumptionCacheTrackerPassERNS_12PassRegistryE
   obj:/usr/lib/x86_64-linux-gnu/libLLVM-11.so.1
   fun:__pthread_once_slow
   fun:_ZN4llvm32initializeBasicAAWrapperPassPassERNS_12PassRegistryE
   obj:/usr/lib/x86_64-linux-gnu/libLLVM-11.so.1
   fun:__pthread_once_slow
   fun:_ZN4llvm34initializeAAResultsWrapperPassPassERNS_12PassRegistryE
   obj:/usr/lib/x86_64-linux-gnu/libLLVM-11.so.1
   fun:__pthread_once_slow
}
{
   4c0595c6f6de2293084fd680a10716f6
   Memcheck:Leak
   match-leak-kinds: reachable
   fun:_Znwm
   obj:/usr/lib/x86_64-linux-gnu/libLLVM-11.so.1
   fun:__pthread_once_slow
   fun:_ZN4llvm38initializeScalarizeMaskedMemIntrinPassERNS_12PassRegistryE
   fun:_ZN4llvm17initializeCodeGenERNS_12PassRegistryE
   fun:_ZN4llvm16TargetPassConfigC1ERNS_17LLVMTargetMachineERNS_6legacy15PassManagerBaseE
   obj:/usr/lib/x86_64-linux-gnu/libLLVM-11.so.1
   fun:_ZN4llvm17LLVMTargetMachine19addPassesToEmitFileERNS_6legacy15PassManagerBaseERNS_17raw_pwrite_streamEPS4_NS_15CodeGenFileTypeEbPNS_28MachineModuleInfoWrapperPassE
   obj:/usr/lib/x86_64-linux-gnu/dri/radeonsi_dri.so
   obj:/usr/lib/x86_64-linux-gnu/dri/radeonsi_dri.so
   obj:/usr/lib/x86_64-linux-gnu/dri/radeonsi_dri.so
   obj:/usr/lib/x86_64-linux-gnu/dri/radeonsi_dri.so
}
{
   d8d8df8d3938ff0ba20ce4b355b5b92d
   Memcheck:Leak
   match-leak-kinds: reachable
   fun:_Znwm
   obj:/usr/lib/x86_64-linux-gnu/libLLVM-11.so.1
   fun:__pthread_once_slow
   fun:_ZN4llvm34initializeUnpackMachineBundlesPassERNS_12PassRegistryE
   fun:_ZN4llvm17initializeCodeGenERNS_12PassRegistryE
   fun:_ZN4llvm16TargetPassConfigC1ERNS_17LLVMTargetMachineERNS_6legacy15PassManagerBaseE
   obj:/usr/lib/x86_64-linux-gnu/libLLVM-11.so.1
   fun:_ZN4llvm17LLVMTargetMachine19addPassesToEmitFileERNS_6legacy15PassManagerBaseERNS_17raw_pwrite_streamEPS4_NS_15CodeGenFileTypeEbPNS_28MachineModuleInfoWrapperPassE
   obj:/usr/lib/x86_64-linux-gnu/dri/radeonsi_dri.so
   obj:/usr/lib/x86_64-linux-gnu/dri/radeonsi_dri.so
   obj:/usr/lib/x86_64-linux-gnu/dri/radeonsi_dri.so
   obj:/usr/lib/x86_64-linux-gnu/dri/radeonsi_dri.so
}
{
   f47bb19371fc91b9e7ad77ca6fc03e59
   Memcheck:Leak
   match-leak-kinds: reachable
   fun:_Znwm
   obj:/usr/lib/x86_64-linux-gnu/libLLVM-11.so.1
   fun:__pthread_once_slow
   fun:_ZN4llvm27initializeTypePromotionPassERNS_12PassRegistryE
   fun:_ZN4llvm17initializeCodeGenERNS_12PassRegistryE
   fun:_ZN4llvm16TargetPassConfigC1ERNS_17LLVMTargetMachineERNS_6legacy15PassManagerBaseE
   obj:/usr/lib/x86_64-linux-gnu/libLLVM-11.so.1
   fun:_ZN4llvm17LLVMTargetMachine19addPassesToEmitFileERNS_6legacy15PassManagerBaseERNS_17raw_pwrite_streamEPS4_NS_15CodeGenFileTypeEbPNS_28MachineModuleInfoWrapperPassE
   obj:/usr/lib/x86_64-linux-gnu/dri/radeonsi_dri.so
   obj:/usr/lib/x86_64-linux-gnu/dri/radeonsi_dri.so
   obj:/usr/lib/x86_64-linux-gnu/dri/radeonsi_dri.so
   obj:/usr/lib/x86_64-linux-gnu/dri/radeonsi_dri.so
}
{
   6efd9dbf32f9fe3f259136d7fa31032a
   Memcheck:Leak
   match-leak-kinds: reachable
   fun:_Znwm
   obj:/usr/lib/x86_64-linux-gnu/libLLVM-11.so.1
   fun:_ZN4llvm12PassRegistry12registerPassERKNS_8PassInfoEb
   obj:/usr/lib/x86_64-linux-gnu/libLLVM-11.so.1
   fun:__pthread_once_slow
   fun:_ZN4llvm27initializeTailDuplicatePassERNS_12PassRegistryE
   fun:_ZN4llvm17initializeCodeGenERNS_12PassRegistryE
   fun:_ZN4llvm16TargetPassConfigC1ERNS_17LLVMTargetMachineERNS_6legacy15PassManagerBaseE
   obj:/usr/lib/x86_64-linux-gnu/libLLVM-11.so.1
   fun:_ZN4llvm17LLVMTargetMachine19addPassesToEmitFileERNS_6legacy15PassManagerBaseERNS_17raw_pwrite_streamEPS4_NS_15CodeGenFileTypeEbPNS_28MachineModuleInfoWrapperPassE
   obj:/usr/lib/x86_64-linux-gnu/dri/radeonsi_dri.so
   obj:/usr/lib/x86_64-linux-gnu/dri/radeonsi_dri.so
}
{
   f4d6a47836a1118e9539c58ed8a84934
   Memcheck:Leak
   match-leak-kinds: reachable
   fun:_Znwm
   obj:/usr/lib/x86_64-linux-gnu/libLLVM-11.so.1
   fun:__pthread_once_slow
   fun:_ZN4llvm35initializeRegUsageInfoCollectorPassERNS_12PassRegistryE
   fun:_ZN4llvm17initializeCodeGenERNS_12PassRegistryE
   fun:_ZN4llvm16TargetPassConfigC1ERNS_17LLVMTargetMachineERNS_6legacy15PassManagerBaseE
   obj:/usr/lib/x86_64-linux-gnu/libLLVM-11.so.1
   fun:_ZN4llvm17LLVMTargetMachine19addPassesToEmitFileERNS_6legacy15PassManagerBaseERNS_17raw_pwrite_streamEPS4_NS_15CodeGenFileTypeEbPNS_28MachineModuleInfoWrapperPassE
   obj:/usr/lib/x86_64-linux-gnu/dri/radeonsi_dri.so
   obj:/usr/lib/x86_64-linux-gnu/dri/radeonsi_dri.so
   obj:/usr/lib/x86_64-linux-gnu/dri/radeonsi_dri.so
   obj:/usr/lib/x86_64-linux-gnu/dri/radeonsi_dri.so
}
{
   3ca6e34aa396528c733f644e20f13dfa
   Memcheck:Leak
   match-leak-kinds: reachable
   fun:_Znwm
   obj:/usr/lib/x86_64-linux-gnu/libLLVM-11.so.1
   fun:_ZN4llvm12PassRegistry12registerPassERKNS_8PassInfoEb
   obj:/usr/lib/x86_64-linux-gnu/libLLVM-11.so.1
   fun:__pthread_once_slow
   fun:_ZN4llvm31initializePeepholeOptimizerPassERNS_12PassRegistryE
   fun:_ZN4llvm17initializeCodeGenERNS_12PassRegistryE
   fun:_ZN4llvm16TargetPassConfigC1ERNS_17LLVMTargetMachineERNS_6legacy15PassManagerBaseE
   obj:/usr/lib/x86_64-linux-gnu/libLLVM-11.so.1
   fun:_ZN4llvm17LLVMTargetMachine19addPassesToEmitFileERNS_6legacy15PassManagerBaseERNS_17raw_pwrite_streamEPS4_NS_15CodeGenFileTypeEbPNS_28MachineModuleInfoWrapperPassE
   obj:/usr/lib/x86_64-linux-gnu/dri/radeonsi_dri.so
   obj:/usr/lib/x86_64-linux-gnu/dri/radeonsi_dri.so
}
{
   5879bf51c4dae96ad036835cb97482a3
   Memcheck:Leak
   match-leak-kinds: reachable
   fun:_Znwm
   obj:/usr/lib/x86_64-linux-gnu/libLLVM-11.so.1
   fun:__pthread_once_slow
   fun:_ZN4llvm36initializeMachineCopyPropagationPassERNS_12PassRegistryE
   fun:_ZN4llvm17initializeCodeGenERNS_12PassRegistryE
   fun:_ZN4llvm16TargetPassConfigC1ERNS_17LLVMTargetMachineERNS_6legacy15PassManagerBaseE
   obj:/usr/lib/x86_64-linux-gnu/libLLVM-11.so.1
   fun:_ZN4llvm17LLVMTargetMachine19addPassesToEmitFileERNS_6legacy15PassManagerBaseERNS_17raw_pwrite_streamEPS4_NS_15CodeGenFileTypeEbPNS_28MachineModuleInfoWrapperPassE
   obj:/usr/lib/x86_64-linux-gnu/dri/radeonsi_dri.so
   obj:/usr/lib/x86_64-linux-gnu/dri/radeonsi_dri.so
   obj:/usr/lib/x86_64-linux-gnu/dri/radeonsi_dri.so
   obj:/usr/lib/x86_64-linux-gnu/dri/radeonsi_dri.so
}
{
   9b54e10079e51f45cd42ad9168f11e24
   Memcheck:Leak
   match-leak-kinds: reachable
   fun:_Znwm
   obj:/usr/lib/x86_64-linux-gnu/libLLVM-11.so.1
   fun:__pthread_once_slow
   fun:_ZN4llvm38initializeDominatorTreeWrapperPassPassERNS_12PassRegistryE
   obj:/usr/lib/x86_64-linux-gnu/libLLVM-11.so.1
   fun:__pthread_once_slow
   fun:_ZN4llvm32initializeBasicAAWrapperPassPassERNS_12PassRegistryE
   obj:/usr/lib/x86_64-linux-gnu/libLLVM-11.so.1
   fun:__pthread_once_slow
   fun:_ZN4llvm34initializeAAResultsWrapperPassPassERNS_12PassRegistryE
   obj:/usr/lib/x86_64-linux-gnu/libLLVM-11.so.1
   fun:__pthread_once_slow
}
{
   34dc1fb7c6cee1043858e8698be51d9d
   Memcheck:Leak
   match-leak-kinds: reachable
   fun:_Znwm
   obj:/usr/lib/x86_64-linux-gnu/libLLVM-11.so.1
   fun:_ZN4llvm12PassRegistry12registerPassERKNS_8PassInfoEb
   obj:/usr/lib/x86_64-linux-gnu/libLLVM-11.so.1
   fun:__pthread_once_slow
   fun:_ZN4llvm36initializeCFLAndersAAWrapperPassPassERNS_12PassRegistryE
   obj:/usr/lib/x86_64-linux-gnu/libLLVM-11.so.1
   fun:__pthread_once_slow
   fun:_ZN4llvm34initializeAAResultsWrapperPassPassERNS_12PassRegistryE
   obj:/usr/lib/x86_64-linux-gnu/libLLVM-11.so.1
   fun:__pthread_once_slow
   fun:_ZN4llvm32initializeScopInfoRegionPassPassERNS_12PassRegistryE
}
{
   4cad8631fb1a85c60fa594e33b430e74
   Memcheck:Leak
   match-leak-kinds: reachable
   fun:malloc
   obj:/usr/lib/x86_64-linux-gnu/libicuuc.so.67.1
   fun:uhash_open_67
   fun:_ZN6icu_6712UnifiedCacheC1ER10UErrorCode
   fun:_ZN6icu_6712UnifiedCache11getInstanceER10UErrorCode
   fun:_ZN6icu_6715CollationLoaderC1EPKNS_19CollationCacheEntryERKNS_6LocaleER10UErrorCode
   fun:_ZN6icu_6715CollationLoader13loadTailoringERKNS_6LocaleER10UErrorCode
   fun:_ZN6icu_678Collator12makeInstanceERKNS_6LocaleER10UErrorCode
   fun:_ZN6icu_678Collator14createInstanceERKNS_6LocaleER10UErrorCode
   fun:ucol_open_67
   obj:/usr/lib/x86_64-linux-gnu/libQt6Core.so.6.2.4
   fun:_ZN23QFileSystemModelPrivate12sortChildrenEiRK11QModelIndex
}
{
   760f018b15181e3c0872f9f84f20e1b4
   Memcheck:Leak
   match-leak-kinds: reachable
   fun:_Znwm
   obj:/usr/lib/x86_64-linux-gnu/libLLVM-11.so.1
   fun:_ZN4llvm12PassRegistry12registerPassERKNS_8PassInfoEb
   obj:/usr/lib/x86_64-linux-gnu/libLLVM-11.so.1
   fun:__pthread_once_slow
   fun:_ZN4llvm25initializeMachineLICMPassERNS_12PassRegistryE
   fun:_ZN4llvm17initializeCodeGenERNS_12PassRegistryE
   fun:_ZN4llvm16TargetPassConfigC1ERNS_17LLVMTargetMachineERNS_6legacy15PassManagerBaseE
   obj:/usr/lib/x86_64-linux-gnu/libLLVM-11.so.1
   fun:_ZN4llvm17LLVMTargetMachine19addPassesToEmitFileERNS_6legacy15PassManagerBaseERNS_17raw_pwrite_streamEPS4_NS_15CodeGenFileTypeEbPNS_28MachineModuleInfoWrapperPassE
   obj:/usr/lib/x86_64-linux-gnu/dri/radeonsi_dri.so
   obj:/usr/lib/x86_64-linux-gnu/dri/radeonsi_dri.so
}
{
   8eee883eb21c34d8d376951e5f014856
   Memcheck:Leak
   match-leak-kinds: reachable
   fun:_Znwm
   obj:/usr/lib/x86_64-linux-gnu/libLLVM-11.so.1
   fun:__pthread_once_slow
   fun:_ZN4llvm29initializeMachineLoopInfoPassERNS_12PassRegistryE
   obj:/usr/lib/x86_64-linux-gnu/libLLVM-11.so.1
   fun:__pthread_once_slow
   fun:_ZN4llvm39initializeMachineBlockFrequencyInfoPassERNS_12PassRegistryE
   obj:/usr/lib/x86_64-linux-gnu/libLLVM-11.so.1
   fun:__pthread_once_slow
   fun:_ZN4llvm27initializeRegBankSelectPassERNS_12PassRegistryE
   fun:_ZN4llvm20initializeGlobalISelERNS_12PassRegistryE
   fun:LLVMInitializeAMDGPUTarget
}
{
   22855a8bee28bae6a29c6406c5c1fcd3
   Memcheck:Leak
   match-leak-kinds: reachable
   fun:_Znwm
   obj:/usr/lib/x86_64-linux-gnu/libLLVM-11.so.1
   fun:_ZN4llvm12PassRegistry12registerPassERKNS_8PassInfoEb
   obj:/usr/lib/x86_64-linux-gnu/libLLVM-11.so.1
   fun:__pthread_once_slow
   fun:_ZN4llvm41createPostInlineEntryExitInstrumenterPassEv
   fun:_ZN4llvm16TargetPassConfig11addIRPassesEv
   obj:/usr/lib/x86_64-linux-gnu/libLLVM-11.so.1
   fun:_ZN4llvm16TargetPassConfig13addISelPassesEv
   fun:_ZN4llvm17LLVMTargetMachine19addPassesToEmitFileERNS_6legacy15PassManagerBaseERNS_17raw_pwrite_streamEPS4_NS_15CodeGenFileTypeEbPNS_28MachineModuleInfoWrapperPassE
   obj:/usr/lib/x86_64-linux-gnu/dri/radeonsi_dri.so
   obj:/usr/lib/x86_64-linux-gnu/dri/radeonsi_dri.so
}
{
   13e960883071c1fbc3610d7ec5f31194
   Memcheck:Leak
   match-leak-kinds: reachable
   fun:_Znwm
   obj:/usr/lib/x86_64-linux-gnu/libLLVM-11.so.1
   fun:__pthread_once_slow
   fun:_ZN4llvm31initializeInterleavedAccessPassERNS_12PassRegistryE
   fun:_ZN4llvm17initializeCodeGenERNS_12PassRegistryE
   fun:_ZN4llvm16TargetPassConfigC1ERNS_17LLVMTargetMachineERNS_6legacy15PassManagerBaseE
   obj:/usr/lib/x86_64-linux-gnu/libLLVM-11.so.1
   fun:_ZN4llvm17LLVMTargetMachine19addPassesToEmitFileERNS_6legacy15PassManagerBaseERNS_17raw_pwrite_streamEPS4_NS_15CodeGenFileTypeEbPNS_28MachineModuleInfoWrapperPassE
   obj:/usr/lib/x86_64-linux-gnu/dri/radeonsi_dri.so
   obj:/usr/lib/x86_64-linux-gnu/dri/radeonsi_dri.so
   obj:/usr/lib/x86_64-linux-gnu/dri/radeonsi_dri.so
   obj:/usr/lib/x86_64-linux-gnu/dri/radeonsi_dri.so
}
{
   a12a7e861d8e38e6cb36dbd6931b81a8
   Memcheck:Leak
   match-leak-kinds: reachable
   fun:_Znwm
   obj:/usr/lib/x86_64-linux-gnu/libLLVM-11.so.1
   fun:__pthread_once_slow
   fun:_ZN4llvm27initializeHardwareLoopsPassERNS_12PassRegistryE
   fun:_ZN4llvm17initializeCodeGenERNS_12PassRegistryE
   fun:_ZN4llvm16TargetPassConfigC1ERNS_17LLVMTargetMachineERNS_6legacy15PassManagerBaseE
   obj:/usr/lib/x86_64-linux-gnu/libLLVM-11.so.1
   fun:_ZN4llvm17LLVMTargetMachine19addPassesToEmitFileERNS_6legacy15PassManagerBaseERNS_17raw_pwrite_streamEPS4_NS_15CodeGenFileTypeEbPNS_28MachineModuleInfoWrapperPassE
   obj:/usr/lib/x86_64-linux-gnu/dri/radeonsi_dri.so
   obj:/usr/lib/x86_64-linux-gnu/dri/radeonsi_dri.so
   obj:/usr/lib/x86_64-linux-gnu/dri/radeonsi_dri.so
   obj:/usr/lib/x86_64-linux-gnu/dri/radeonsi_dri.so
}
{
   01cb5a415604fbdfaf06397d617b0620
   Memcheck:Leak
   match-leak-kinds: reachable
   fun:_Znwm
   obj:/usr/lib/x86_64-linux-gnu/libLLVM-11.so.1
   fun:__pthread_once_slow
   fun:_ZN4llvm33initializeMachineVerifierPassPassERNS_12PassRegistryE
   fun:_ZN4llvm17initializeCodeGenERNS_12PassRegistryE
   fun:_ZN4llvm16TargetPassConfigC1ERNS_17LLVMTargetMachineERNS_6legacy15PassManagerBaseE
   obj:/usr/lib/x86_64-linux-gnu/libLLVM-11.so.1
   fun:_ZN4llvm17LLVMTargetMachine19addPassesToEmitFileERNS_6legacy15PassManagerBaseERNS_17raw_pwrite_streamEPS4_NS_15CodeGenFileTypeEbPNS_28MachineModuleInfoWrapperPassE
   obj:/usr/lib/x86_64-linux-gnu/dri/radeonsi_dri.so
   obj:/usr/lib/x86_64-linux-gnu/dri/radeonsi_dri.so
   obj:/usr/lib/x86_64-linux-gnu/dri/radeonsi_dri.so
   obj:/usr/lib/x86_64-linux-gnu/dri/radeonsi_dri.so
}
{
   c3c592b3bd7cd062972a4a7f5ad92112
   Memcheck:Leak
   match-leak-kinds: reachable
   fun:_Znwm
   obj:/usr/lib/x86_64-linux-gnu/libLLVM-11.so.1
   fun:_ZN4llvm12PassRegistry12registerPassERKNS_8PassInfoEb
   obj:/usr/lib/x86_64-linux-gnu/libLLVM-11.so.1
   fun:__pthread_once_slow
   fun:_ZN4llvm33initializeScopInfoWrapperPassPassERNS_12PassRegistryE
   obj:/usr/lib/x86_64-linux-gnu/libLLVM-11.so.1
   fun:__pthread_once_slow
   fun:_ZN4llvm39initializeDependenceInfoWrapperPassPassERNS_12PassRegistryE
   fun:_ZN5polly21initializePollyPassesERN4llvm12PassRegistryE
   obj:/usr/lib/x86_64-linux-gnu/libLLVM-11.so.1
   fun:call_init.part.0
}
{
   7a70bbdb99f868931ba734579f5c6422
   Memcheck:Leak
   match-leak-kinds: reachable
   fun:_Znwm
   obj:/usr/lib/x86_64-linux-gnu/libLLVM-11.so.1
   fun:__pthread_once_slow
   fun:_ZN4llvm20createFlattenCFGPassEv
   obj:/usr/lib/x86_64-linux-gnu/libLLVM-11.so.1
   fun:_ZN4llvm16TargetPassConfig14addISelPrepareEv
   fun:_ZN4llvm16TargetPassConfig13addISelPassesEv
   fun:_ZN4llvm17LLVMTargetMachine19addPassesToEmitFileERNS_6legacy15PassManagerBaseERNS_17raw_pwrite_streamEPS4_NS_15CodeGenFileTypeEbPNS_28MachineModuleInfoWrapperPassE
   obj:/usr/lib/x86_64-linux-gnu/dri/radeonsi_dri.so
   obj:/usr/lib/x86_64-linux-gnu/dri/radeonsi_dri.so
   obj:/usr/lib/x86_64-linux-gnu/dri/radeonsi_dri.so
   obj:/usr/lib/x86_64-linux-gnu/dri/radeonsi_dri.so
}
{
   2a534c42821817e74007669987c855e2
   Memcheck:Leak
   match-leak-kinds: reachable
   fun:malloc
   fun:_ZN6icu_677UMemorynwEm
   fun:_ZN6icu_6718CollationTailoring15ensureOwnedDataER10UErrorCode
   fun:_ZN6icu_6719CollationDataReader4readEPKNS_18CollationTailoringEPKhiRS1_R10UErrorCode
   fun:_ZN6icu_6713CollationRoot4loadER10UErrorCode
   fun:_ZN6icu_6713CollationRoot17getRootCacheEntryER10UErrorCode
   fun:_ZN6icu_6715CollationLoader13loadTailoringERKNS_6LocaleER10UErrorCode
   fun:_ZN6icu_678Collator12makeInstanceERKNS_6LocaleER10UErrorCode
   fun:_ZN6icu_678Collator14createInstanceERKNS_6LocaleER10UErrorCode
   fun:ucol_open_67
   obj:/usr/lib/x86_64-linux-gnu/libQt6Core.so.6.2.4
   fun:_ZN23QFileSystemModelPrivate12sortChildrenEiRK11QModelIndex
}
{
   a52f2c7957e5c583b2cd89ea4d230f05
   Memcheck:Leak
   match-leak-kinds: reachable
   fun:malloc
   fun:g_malloc
   obj:/usr/lib/x86_64-linux-gnu/libglib-2.0.so.0.6600.8
   fun:g_hash_table_insert
   obj:/usr/lib/x86_64-linux-gnu/libglib-2.0.so.0.6600.8
   fun:g_source_attach
   fun:_ZN27QEventDispatcherGlibPrivateC1EP13_GMainContext
   obj:/usr/lib/x86_64-linux-gnu/libQt6XcbQpa.so.6.2.4
   obj:/usr/lib/x86_64-linux-gnu/libQt6XcbQpa.so.6.2.4
   fun:_ZN22QGuiApplicationPrivate21createEventDispatcherEv
   fun:_ZN23QCoreApplicationPrivate4initEv
   fun:_ZN22QGuiApplicationPrivate4initEv
}
{
   05ce5fdc4ec1f7667b52a153b91f6c28
   Memcheck:Leak
   match-leak-kinds: reachable
   fun:_Znwm
   obj:/usr/lib/x86_64-linux-gnu/libLLVM-11.so.1
   fun:_ZN4llvm12PassRegistry12registerPassERKNS_8PassInfoEb
   obj:/usr/lib/x86_64-linux-gnu/libLLVM-11.so.1
   fun:__pthread_once_slow
   fun:_ZN4llvm27initializeSjLjEHPreparePassERNS_12PassRegistryE
   fun:_ZN4llvm17initializeCodeGenERNS_12PassRegistryE
   fun:_ZN4llvm16TargetPassConfigC1ERNS_17LLVMTargetMachineERNS_6legacy15PassManagerBaseE
   obj:/usr/lib/x86_64-linux-gnu/libLLVM-11.so.1
   fun:_ZN4llvm17LLVMTargetMachine19addPassesToEmitFileERNS_6legacy15PassManagerBaseERNS_17raw_pwrite_streamEPS4_NS_15CodeGenFileTypeEbPNS_28MachineModuleInfoWrapperPassE
   obj:/usr/lib/x86_64-linux-gnu/dri/radeonsi_dri.so
   obj:/usr/lib/x86_64-linux-gnu/dri/radeonsi_dri.so
}
{
   e59815a208436d7e478fb5581567e082
   Memcheck:Leak
   match-leak-kinds: reachable
   fun:malloc
   fun:UDataMemory_createNewInstance_67
   obj:/usr/lib/x86_64-linux-gnu/libicuuc.so.67.1
   obj:/usr/lib/x86_64-linux-gnu/libicuuc.so.67.1
   fun:_ZN6icu_6713CollationRoot4loadER10UErrorCode
   fun:_ZN6icu_6713CollationRoot17getRootCacheEntryER10UErrorCode
   fun:_ZN6icu_6715CollationLoader13loadTailoringERKNS_6LocaleER10UErrorCode
   fun:_ZN6icu_678Collator12makeInstanceERKNS_6LocaleER10UErrorCode
   fun:_ZN6icu_678Collator14createInstanceERKNS_6LocaleER10UErrorCode
   fun:ucol_open_67
   obj:/usr/lib/x86_64-linux-gnu/libQt6Core.so.6.2.4
   fun:_ZN23QFileSystemModelPrivate12sortChildrenEiRK11QModelIndex
}
{
   591894a46a056ddebdccdb6b52496ec3
   Memcheck:Leak
   match-leak-kinds: reachable
   fun:_Znwm
   obj:/usr/lib/x86_64-linux-gnu/libLLVM-11.so.1
   fun:_ZN4llvm12PassRegistry12registerPassERKNS_8PassInfoEb
   obj:/usr/lib/x86_64-linux-gnu/libLLVM-11.so.1
   fun:__pthread_once_slow
   fun:_ZN4llvm33initializeMachineTraceMetricsPassERNS_12PassRegistryE
   obj:/usr/lib/x86_64-linux-gnu/libLLVM-11.so.1
   fun:__pthread_once_slow
   fun:_ZN4llvm30initializeEarlyIfConverterPassERNS_12PassRegistryE
   fun:_ZN4llvm17initializeCodeGenERNS_12PassRegistryE
   fun:_ZN4llvm16TargetPassConfigC1ERNS_17LLVMTargetMachineERNS_6legacy15PassManagerBaseE
   obj:/usr/lib/x86_64-linux-gnu/libLLVM-11.so.1
}
{
   3dc371dabb98dbe52f0c6e8a5a68ab53
   Memcheck:Leak
   match-leak-kinds: reachable
   fun:malloc
   fun:strdup
   fun:_dl_map_object
   fun:dl_open_worker
   fun:_dl_catch_exception
   fun:_dl_open
   fun:dlopen_doit
   fun:_dl_catch_exception
   fun:_dl_catch_error
   fun:_dlerror_run
   fun:dlopen@@GLIBC_2.2.5
   obj:/usr/lib/x86_64-linux-gnu/libQt6Core.so.6.2.4
}
{
   3799da4e9fca204b1c21dee2ba205837
   Memcheck:Leak
   match-leak-kinds: reachable
   fun:_Znwm
   obj:/usr/lib/x86_64-linux-gnu/libLLVM-11.so.1
   fun:__pthread_once_slow
   fun:_ZN4llvm35initializeMachineRegionInfoPassPassERNS_12PassRegistryE
   fun:_ZN4llvm17initializeCodeGenERNS_12PassRegistryE
   fun:_ZN4llvm16TargetPassConfigC1ERNS_17LLVMTargetMachineERNS_6legacy15PassManagerBaseE
   obj:/usr/lib/x86_64-linux-gnu/libLLVM-11.so.1
   fun:_ZN4llvm17LLVMTargetMachine19addPassesToEmitFileERNS_6legacy15PassManagerBaseERNS_17raw_pwrite_streamEPS4_NS_15CodeGenFileTypeEbPNS_28MachineModuleInfoWrapperPassE
   obj:/usr/lib/x86_64-linux-gnu/dri/radeonsi_dri.so
   obj:/usr/lib/x86_64-linux-gnu/dri/radeonsi_dri.so
   obj:/usr/lib/x86_64-linux-gnu/dri/radeonsi_dri.so
   obj:/usr/lib/x86_64-linux-gnu/dri/radeonsi_dri.so
}
{
   d353c8dfdc82c5a3d3bfd8063c8f013a
   Memcheck:Leak
   match-leak-kinds: reachable
   fun:_Znwm
   obj:/usr/lib/x86_64-linux-gnu/libLLVM-11.so.1
   fun:__pthread_once_slow
   fun:_ZN4llvm28initializeCodeGenPreparePassERNS_12PassRegistryE
   fun:_ZN4llvm17initializeCodeGenERNS_12PassRegistryE
   fun:_ZN4llvm16TargetPassConfigC1ERNS_17LLVMTargetMachineERNS_6legacy15PassManagerBaseE
   obj:/usr/lib/x86_64-linux-gnu/libLLVM-11.so.1
   fun:_ZN4llvm17LLVMTargetMachine19addPassesToEmitFileERNS_6legacy15PassManagerBaseERNS_17raw_pwrite_streamEPS4_NS_15CodeGenFileTypeEbPNS_28MachineModuleInfoWrapperPassE
   obj:/usr/lib/x86_64-linux-gnu/dri/radeonsi_dri.so
   obj:/usr/lib/x86_64-linux-gnu/dri/radeonsi_dri.so
   obj:/usr/lib/x86_64-linux-gnu/dri/radeonsi_dri.so
   obj:/usr/lib/x86_64-linux-gnu/dri/radeonsi_dri.so
}
{
   05b79d0d46a490c545e21f0be43c7a0b
   Memcheck:Leak
   match-leak-kinds: reachable
   fun:_Znwm
   obj:/usr/lib/x86_64-linux-gnu/libLLVM-11.so.1
   fun:_ZN4llvm12PassRegistry12registerPassERKNS_8PassInfoEb
   obj:/usr/lib/x86_64-linux-gnu/libLLVM-11.so.1
   fun:__pthread_once_slow
   fun:_ZN4llvm28initializeFEntryInserterPassERNS_12PassRegistryE
   fun:_ZN4llvm17initializeCodeGenERNS_12PassRegistryE
   fun:_ZN4llvm16TargetPassConfigC1ERNS_17LLVMTargetMachineERNS_6legacy15PassManagerBaseE
   obj:/usr/lib/x86_64-linux-gnu/libLLVM-11.so.1
   fun:_ZN4llvm17LLVMTargetMachine19addPassesToEmitFileERNS_6legacy15PassManagerBaseERNS_17raw_pwrite_streamEPS4_NS_15CodeGenFileTypeEbPNS_28MachineModuleInfoWrapperPassE
   obj:/usr/lib/x86_64-linux-gnu/dri/radeonsi_dri.so
   obj:/usr/lib/x86_64-linux-gnu/dri/radeonsi_dri.so
}
{
   762182dbfea121bc5f5cdfe14d2d164c
   Memcheck:Leak
   match-leak-kinds: reachable
   fun:_Znwm
   obj:/usr/lib/x86_64-linux-gnu/libLLVM-11.so.1
   fun:_ZN4llvm12PassRegistry12registerPassERKNS_8PassInfoEb
   obj:/usr/lib/x86_64-linux-gnu/libLLVM-11.so.1
   fun:__pthread_once_slow
   fun:_ZN4llvm29initializeFlattenSchedulePassERNS_12PassRegistryE
   fun:_ZN5polly21initializePollyPassesERN4llvm12PassRegistryE
   obj:/usr/lib/x86_64-linux-gnu/libLLVM-11.so.1
   fun:call_init.part.0
   fun:call_init
   fun:_dl_init
   fun:_dl_catch_exception
   fun:dl_open_worker
}
{
   d084c60549482dc40118dd820bf2ae9b
   Memcheck:Leak
   match-leak-kinds: reachable
   fun:malloc
   fun:strdup
   obj:/usr/lib/x86_64-linux-gnu/libfontconfig.so.1.12.0
   fun:FcDefaultSubstitute
   fun:_ZNK19QFontconfigDatabase18fallbacksForFamilyERK7QStringN5QFont5StyleENS3_9StyleHintEN5QChar6ScriptE
   obj:/usr/lib/x86_64-linux-gnu/libQt6Gui.so.6.2.4
   fun:_ZN20QFontDatabasePrivate8findFontERK8QFontDefib
   fun:_ZN20QFontDatabasePrivate4loadEPK12QFontPrivatei
   fun:_ZNK12QFontPrivate15engineForScriptEi
   fun:_ZNK13QFontMetricsF7leadingEv
   obj:/usr/lib/x86_64-linux-gnu/libQt6Gui.so.6.2.4
   obj:/usr/lib/x86_64-linux-gnu/libQt6Gui.so.6.2.4
}
{
   d720033e1f5ab870332b0c64c9989014
   Memcheck:Leak
   match-leak-kinds: reachable
   fun:_Znwm
   obj:/usr/lib/x86_64-linux-gnu/libLLVM-11.so.1
   fun:__pthread_once_slow
   obj:/usr/lib/x86_64-linux-gnu/libLLVM-11.so.1
   fun:__pthread_once_slow
   fun:_ZN4llvm34initializeAAResultsWrapperPassPassERNS_12PassRegistryE
   obj:/usr/lib/x86_64-linux-gnu/libLLVM-11.so.1
   fun:__pthread_once_slow
   fun:_ZN4llvm32initializeScopInfoRegionPassPassERNS_12PassRegistryE
   obj:/usr/lib/x86_64-linux-gnu/libLLVM-11.so.1
   fun:__pthread_once_slow
   fun:_ZN4llvm28initializeDependenceInfoPassERNS_12PassRegistryE
}
{
   36a15b53108bb1c341f0202d62e6b42f
   Memcheck:Leak
   match-leak-kinds: reachable
   fun:calloc
   fun:_ZN4llvm13StringMapImpl15LookupBucketForENS_9StringRefE
   obj:/usr/lib/x86_64-linux-gnu/libLLVM-11.so.1
   obj:/usr/lib/x86_64-linux-gnu/libLLVM-11.so.1
   obj:/usr/lib/x86_64-linux-gnu/libLLVM-11.so.1
   obj:/usr/lib/x86_64-linux-gnu/libLLVM-11.so.1
   fun:call_init.part.0
   fun:call_init
   fun:_dl_init
   fun:_dl_catch_exception
   fun:dl_open_worker
   fun:_dl_catch_exception
   fun:_dl_open
}
{
   3d534d5c50cb1ce02b8fb37eed0ebf0f
   Memcheck:Leak
   match-leak-kinds: reachable
   fun:_Znwm
   obj:/usr/lib/x86_64-linux-gnu/libLLVM-11.so.1
   fun:_ZN4llvm12PassRegistry12registerPassERKNS_8PassInfoEb
   obj:/usr/lib/x86_64-linux-gnu/libLLVM-11.so.1
   fun:__pthread_once_slow
   obj:/usr/lib/x86_64-linux-gnu/libLLVM-11.so.1
   obj:/usr/lib/x86_64-linux-gnu/dri/radeonsi_dri.so
   fun:__pthread_once_slow
   obj:/usr/lib/x86_64-linux-gnu/dri/radeonsi_dri.so
   obj:/usr/lib/x86_64-linux-gnu/dri/radeonsi_dri.so
   obj:/usr/lib/x86_64-linux-gnu/dri/radeonsi_dri.so
   obj:/usr/lib/x86_64-linux-gnu/dri/radeonsi_dri.so
}
{
   5cf0f8b2e7780f1b7204b0eee98c3e16
   Memcheck:Leak
   match-leak-kinds: reachable
   fun:_Znwm
   obj:/usr/lib/x86_64-linux-gnu/libLLVM-11.so.1
   fun:__pthread_once_slow
   fun:_ZN4llvm27initializeLiveRegMatrixPassERNS_12PassRegistryE
   obj:/usr/lib/x86_64-linux-gnu/libLLVM-11.so.1
   fun:__pthread_once_slow
   obj:/usr/lib/x86_64-linux-gnu/libLLVM-11.so.1
   fun:LLVMInitializeAMDGPUTarget
   obj:/usr/lib/x86_64-linux-gnu/dri/radeonsi_dri.so
   fun:__pthread_once_slow
   obj:/usr/lib/x86_64-linux-gnu/dri/radeonsi_dri.so
   obj:/usr/lib/x86_64-linux-gnu/dri/radeonsi_dri.so
}
{
   1a8e0feaee63e4380dcdc69e6f9fb254
   Memcheck:Leak
   match-leak-kinds: reachable
   fun:_Znwm
   obj:/usr/lib/x86_64-linux-gnu/libLLVM-11.so.1
   fun:__pthread_once_slow
   fun:_ZN4llvm31initializePruneUnprofitablePassERNS_12PassRegistryE
   obj:/usr/lib/x86_64-linux-gnu/libLLVM-11.so.1
   fun:call_init.part.0
   fun:call_init
   fun:_dl_init
   fun:_dl_catch_exception
   fun:dl_open_worker
   fun:_dl_catch_exception
   fun:_dl_open
   fun:dlopen_doit
}
{
   1292d5de44c3999da204c5923010a8be
   Memcheck:Leak
   match-leak-kinds: reachable
   fun:_Znwm
   obj:/usr/lib/x86_64-linux-gnu/libLLVM-11.so.1
   fun:__pthread_once_slow
   fun:_ZN4llvm39initializeDependenceInfoWrapperPassPassERNS_12PassRegistryE
   fun:_ZN5polly21initializePollyPassesERN4llvm12PassRegistryE
   obj:/usr/lib/x86_64-linux-gnu/libLLVM-11.so.1
   fun:call_init.part.0
   fun:call_init
   fun:_dl_init
   fun:_dl_catch_exception
   fun:dl_open_worker
   fun:_dl_catch_exception
   fun:_dl_open
}
{
   af0717ba2105a21be1266f1e9a5bbee1
   Memcheck:Leak
   match-leak-kinds: reachable
   fun:_Znwm
   obj:/usr/lib/x86_64-linux-gnu/libLLVM-11.so.1
   fun:__pthread_once_slow
   fun:_ZN4llvm27initializeTailDuplicatePassERNS_12PassRegistryE
   fun:_ZN4llvm17initializeCodeGenERNS_12PassRegistryE
   fun:_ZN4llvm16TargetPassConfigC1ERNS_17LLVMTargetMachineERNS_6legacy15PassManagerBaseE
   obj:/usr/lib/x86_64-linux-gnu/libLLVM-11.so.1
   fun:_ZN4llvm17LLVMTargetMachine19addPassesToEmitFileERNS_6legacy15PassManagerBaseERNS_17raw_pwrite_streamEPS4_NS_15CodeGenFileTypeEbPNS_28MachineModuleInfoWrapperPassE
   obj:/usr/lib/x86_64-linux-gnu/dri/radeonsi_dri.so
   obj:/usr/lib/x86_64-linux-gnu/dri/radeonsi_dri.so
   obj:/usr/lib/x86_64-linux-gnu/dri/radeonsi_dri.so
   obj:/usr/lib/x86_64-linux-gnu/dri/radeonsi_dri.so
}
{
   196f64ccd201c7040e4289688c979098
   Memcheck:Leak
   match-leak-kinds: reachable
   fun:malloc
   fun:_ZN6icu_677UMemorynwEm
   fun:_ZN6icu_6710UnicodeSet6freezeEv
   fun:_ZN6icu_6719CollationDataReader4readEPKNS_18CollationTailoringEPKhiRS1_R10UErrorCode
   fun:_ZN6icu_6713CollationRoot4loadER10UErrorCode
   fun:_ZN6icu_6713CollationRoot17getRootCacheEntryER10UErrorCode
   fun:_ZN6icu_6715CollationLoader13loadTailoringERKNS_6LocaleER10UErrorCode
   fun:_ZN6icu_678Collator12makeInstanceERKNS_6LocaleER10UErrorCode
   fun:_ZN6icu_678Collator14createInstanceERKNS_6LocaleER10UErrorCode
   fun:ucol_open_67
   obj:/usr/lib/x86_64-linux-gnu/libQt6Core.so.6.2.4
   fun:_ZN23QFileSystemModelPrivate12sortChildrenEiRK11QModelIndex
}
{
   7b6485d8cbf169c59f2b52ee07239696
   Memcheck:Leak
   match-leak-kinds: reachable
   fun:calloc
   fun:_dl_check_map_versions
   fun:dl_open_worker
   fun:_dl_catch_exception
   fun:_dl_open
   fun:dlopen_doit
   fun:_dl_catch_exception
   fun:_dl_catch_error
   fun:_dlerror_run
   fun:dlopen@@GLIBC_2.2.5
   obj:*
   obj:*
}
{
   47192c2967c5f120cf595abeb10b8812
   Memcheck:Leak
   match-leak-kinds: reachable
   fun:_Znwm
   obj:/usr/lib/x86_64-linux-gnu/libLLVM-11.so.1
   fun:__pthread_once_slow
   fun:_ZN4llvm26initializeOptimizePHIsPassERNS_12PassRegistryE
   fun:_ZN4llvm17initializeCodeGenERNS_12PassRegistryE
   fun:_ZN4llvm16TargetPassConfigC1ERNS_17LLVMTargetMachineERNS_6legacy15PassManagerBaseE
   obj:/usr/lib/x86_64-linux-gnu/libLLVM-11.so.1
   fun:_ZN4llvm17LLVMTargetMachine19addPassesToEmitFileERNS_6legacy15PassManagerBaseERNS_17raw_pwrite_streamEPS4_NS_15CodeGenFileTypeEbPNS_28MachineModuleInfoWrapperPassE
   obj:/usr/lib/x86_64-linux-gnu/dri/radeonsi_dri.so
   obj:/usr/lib/x86_64-linux-gnu/dri/radeonsi_dri.so
   obj:/usr/lib/x86_64-linux-gnu/dri/radeonsi_dri.so
   obj:/usr/lib/x86_64-linux-gnu/dri/radeonsi_dri.so
}
{
   90d4291eb4df1ca6d2665e1654cb120c
   Memcheck:Leak
   match-leak-kinds: reachable
   fun:_Znwm
   obj:/usr/lib/x86_64-linux-gnu/libLLVM-11.so.1
   fun:__pthread_once_slow
   fun:_ZN4llvm29createLoadStoreVectorizerPassEv
   obj:/usr/lib/x86_64-linux-gnu/libLLVM-11.so.1
   fun:_ZN4llvm16TargetPassConfig13addISelPassesEv
   fun:_ZN4llvm17LLVMTargetMachine19addPassesToEmitFileERNS_6legacy15PassManagerBaseERNS_17raw_pwrite_streamEPS4_NS_15CodeGenFileTypeEbPNS_28MachineModuleInfoWrapperPassE
   obj:/usr/lib/x86_64-linux-gnu/dri/radeonsi_dri.so
   obj:/usr/lib/x86_64-linux-gnu/dri/radeonsi_dri.so
   obj:/usr/lib/x86_64-linux-gnu/dri/radeonsi_dri.so
   obj:/usr/lib/x86_64-linux-gnu/dri/radeonsi_dri.so
   obj:/usr/lib/x86_64-linux-gnu/dri/radeonsi_dri.so
}
{
   cf311694267baf68aaaa811c4b34bea2
   Memcheck:Leak
   match-leak-kinds: reachable
   fun:_Znwm
   obj:/usr/lib/x86_64-linux-gnu/libLLVM-11.so.1
   fun:_ZN4llvm12PassRegistry12registerPassERKNS_8PassInfoEb
   obj:/usr/lib/x86_64-linux-gnu/libLLVM-11.so.1
   fun:__pthread_once_slow
   fun:_ZN4llvm50initializeOptimizationRemarkEmitterWrapperPassPassERNS_12PassRegistryE
   obj:/usr/lib/x86_64-linux-gnu/libLLVM-11.so.1
   fun:__pthread_once_slow
   fun:_ZN4llvm38initializeScopDetectionWrapperPassPassERNS_12PassRegistryE
   obj:/usr/lib/x86_64-linux-gnu/libLLVM-11.so.1
   fun:__pthread_once_slow
   fun:_ZN4llvm32initializeScopInfoRegionPassPassERNS_12PassRegistryE
}
{
   c32f5aa039e218784ca44b4a6975f8ab
   Memcheck:Leak
   match-leak-kinds: reachable
   fun:_Znwm
   obj:/usr/lib/x86_64-linux-gnu/libLLVM-11.so.1
   fun:_ZN4llvm12PassRegistry12registerPassERKNS_8PassInfoEb
   obj:/usr/lib/x86_64-linux-gnu/libLLVM-11.so.1
   fun:__pthread_once_slow
   fun:_ZN4llvm38initializeLegacyDivergenceAnalysisPassERNS_12PassRegistryE
   obj:/usr/lib/x86_64-linux-gnu/libLLVM-11.so.1
   fun:__pthread_once_slow
   obj:/usr/lib/x86_64-linux-gnu/libLLVM-11.so.1
   fun:LLVMInitializeAMDGPUTarget
   obj:/usr/lib/x86_64-linux-gnu/dri/radeonsi_dri.so
   fun:__pthread_once_slow
}
{
   d57dc050c493a2bc23f64f4f32b1ea8a
   Memcheck:Leak
   match-leak-kinds: reachable
   fun:_Znwm
   obj:/usr/lib/x86_64-linux-gnu/libLLVM-11.so.1
   fun:_ZN4llvm12PassRegistry12registerPassERKNS_8PassInfoEb
   obj:/usr/lib/x86_64-linux-gnu/libLLVM-11.so.1
   fun:__pthread_once_slow
   obj:/usr/lib/x86_64-linux-gnu/libLLVM-11.so.1
   fun:_ZN4llvm14createSROAPassEv
   fun:LLVMAddScalarReplAggregatesPass
   obj:/usr/lib/x86_64-linux-gnu/dri/radeonsi_dri.so
   obj:/usr/lib/x86_64-linux-gnu/dri/radeonsi_dri.so
   obj:/usr/lib/x86_64-linux-gnu/dri/radeonsi_dri.so
   obj:/usr/lib/x86_64-linux-gnu/dri/radeonsi_dri.so
}
{
   f544e4de880362608dedf6633ae03a28
   Memcheck:Leak
   match-leak-kinds: reachable
   fun:_Znwm
   obj:/usr/lib/x86_64-linux-gnu/libLLVM-11.so.1
   fun:_ZN4llvm12PassRegistry12registerPassERKNS_8PassInfoEb
   obj:/usr/lib/x86_64-linux-gnu/libLLVM-11.so.1
   fun:__pthread_once_slow
   fun:_ZN4llvm35initializeIslAstInfoWrapperPassPassERNS_12PassRegistryE
   fun:_ZN5polly21initializePollyPassesERN4llvm12PassRegistryE
   obj:/usr/lib/x86_64-linux-gnu/libLLVM-11.so.1
   fun:call_init.part.0
   fun:call_init
   fun:_dl_init
   fun:_dl_catch_exception
   fun:dl_open_worker
}
{
   3e905fd668cc3bd080074a0f02a1f175
   Memcheck:Leak
   match-leak-kinds: reachable
   fun:_Znwm
   obj:/usr/lib/x86_64-linux-gnu/libLLVM-11.so.1
   fun:__pthread_once_slow
   fun:_ZN4llvm34initializeGlobalsAAWrapperPassPassERNS_12PassRegistryE
   obj:/usr/lib/x86_64-linux-gnu/libLLVM-11.so.1
   fun:__pthread_once_slow
   fun:_ZN4llvm34initializeAAResultsWrapperPassPassERNS_12PassRegistryE
   obj:/usr/lib/x86_64-linux-gnu/libLLVM-11.so.1
   fun:__pthread_once_slow
   fun:_ZN4llvm32initializeScopInfoRegionPassPassERNS_12PassRegistryE
   obj:/usr/lib/x86_64-linux-gnu/libLLVM-11.so.1
   fun:__pthread_once_slow
}
{
   865f950d3631a10fab48f2430acff623
   Memcheck:Leak
   match-leak-kinds: reachable
   fun:malloc
   fun:uprv_strdup_67
   obj:/usr/lib/x86_64-linux-gnu/libicuuc.so.67.1
   obj:/usr/lib/x86_64-linux-gnu/libicuuc.so.67.1
   obj:/usr/lib/x86_64-linux-gnu/libicuuc.so.67.1
   fun:_ZN6icu_6715CollationLoader14loadFromLocaleER10UErrorCode
   fun:_ZNK6icu_6712UnifiedCache4_getERKNS_12CacheKeyBaseERPKNS_12SharedObjectEPKvR10UErrorCode
   fun:_ZN6icu_6715CollationLoader13getCacheEntryER10UErrorCode
   fun:_ZN6icu_6715CollationLoader13loadTailoringERKNS_6LocaleER10UErrorCode
   fun:_ZN6icu_678Collator12makeInstanceERKNS_6LocaleER10UErrorCode
   fun:_ZN6icu_678Collator14createInstanceERKNS_6LocaleER10UErrorCode
   fun:ucol_open_67
}
{
   de4fc9a7c5542f62b47cb1377e452f3b
   Memcheck:Leak
   match-leak-kinds: reachable
   fun:_Znwm
   obj:/usr/lib/x86_64-linux-gnu/libLLVM-11.so.1
   fun:_ZNK4llvm17ManagedStaticBase21RegisterManagedStaticEPFPvvEPFvS1_E
   fun:_ZN4llvm12PassRegistry15getPassRegistryEv
   fun:_ZN4llvm14PassNameParserC1ERNS_2cl6OptionE
   obj:/usr/lib/x86_64-linux-gnu/libLLVM-11.so.1
   fun:call_init.part.0
   fun:call_init
   fun:_dl_init
   fun:_dl_catch_exception
   fun:dl_open_worker
   fun:_dl_catch_exception
   fun:_dl_open
}
{
   46a8f489519aa691d69b68dd7efb0893
   Memcheck:Leak
   match-leak-kinds: reachable
   fun:_Znwm
   obj:/usr/lib/x86_64-linux-gnu/libLLVM-11.so.1
   fun:__pthread_once_slow
   fun:_ZN4llvm32initializeBasicAAWrapperPassPassERNS_12PassRegistryE
   obj:/usr/lib/x86_64-linux-gnu/libLLVM-11.so.1
   fun:__pthread_once_slow
   fun:_ZN4llvm34initializeAAResultsWrapperPassPassERNS_12PassRegistryE
   obj:/usr/lib/x86_64-linux-gnu/libLLVM-11.so.1
   fun:__pthread_once_slow
   fun:_ZN4llvm32initializeScopInfoRegionPassPassERNS_12PassRegistryE
   obj:/usr/lib/x86_64-linux-gnu/libLLVM-11.so.1
   fun:__pthread_once_slow
}
{
   fda816551baabdc4195284f1a73ef46d
   Memcheck:Leak
   match-leak-kinds: reachable
   fun:_Znwm
   obj:/usr/lib/x86_64-linux-gnu/libLLVM-11.so.1
   fun:__pthread_once_slow
   fun:_ZN4llvm31initializePeepholeOptimizerPassERNS_12PassRegistryE
   fun:_ZN4llvm17initializeCodeGenERNS_12PassRegistryE
   fun:_ZN4llvm16TargetPassConfigC1ERNS_17LLVMTargetMachineERNS_6legacy15PassManagerBaseE
   obj:/usr/lib/x86_64-linux-gnu/libLLVM-11.so.1
   fun:_ZN4llvm17LLVMTargetMachine19addPassesToEmitFileERNS_6legacy15PassManagerBaseERNS_17raw_pwrite_streamEPS4_NS_15CodeGenFileTypeEbPNS_28MachineModuleInfoWrapperPassE
   obj:/usr/lib/x86_64-linux-gnu/dri/radeonsi_dri.so
   obj:/usr/lib/x86_64-linux-gnu/dri/radeonsi_dri.so
   obj:/usr/lib/x86_64-linux-gnu/dri/radeonsi_dri.so
   obj:/usr/lib/x86_64-linux-gnu/dri/radeonsi_dri.so
}
{
   a92e04505c9dbb236c334ab5c55c81ca
   Memcheck:Leak
   match-leak-kinds: reachable
   fun:malloc
   fun:strdup
   obj:/usr/lib/x86_64-linux-gnu/libfontconfig.so.1.12.0
   obj:/usr/lib/x86_64-linux-gnu/libfontconfig.so.1.12.0
   obj:/usr/lib/x86_64-linux-gnu/libfontconfig.so.1.12.0
   obj:/usr/lib/x86_64-linux-gnu/libexpat.so.1.6.12
   obj:/usr/lib/x86_64-linux-gnu/libexpat.so.1.6.12
   obj:/usr/lib/x86_64-linux-gnu/libexpat.so.1.6.12
   fun:XML_ParseBuffer
   obj:/usr/lib/x86_64-linux-gnu/libfontconfig.so.1.12.0
   obj:/usr/lib/x86_64-linux-gnu/libfontconfig.so.1.12.0
   obj:/usr/lib/x86_64-linux-gnu/libfontconfig.so.1.12.0
}
{
   8c93cdd07c272443aabfcb065ec4b4f0
   Memcheck:Leak
   match-leak-kinds: reachable
   fun:_Znwm
   obj:/usr/lib/x86_64-linux-gnu/libLLVM-11.so.1
   fun:_ZN4llvm12PassRegistry12registerPassERKNS_8PassInfoEb
   obj:/usr/lib/x86_64-linux-gnu/libLLVM-11.so.1
   fun:__pthread_once_slow
   fun:_ZN4llvm25initializeLazyBPIPassPassERNS_12PassRegistryE
   fun:_ZN4llvm25initializeLazyBFIPassPassERNS_12PassRegistryE
   obj:/usr/lib/x86_64-linux-gnu/libLLVM-11.so.1
   fun:__pthread_once_slow
   fun:_ZN4llvm50initializeOptimizationRemarkEmitterWrapperPassPassERNS_12PassRegistryE
   obj:/usr/lib/x86_64-linux-gnu/libLLVM-11.so.1
   fun:__pthread_once_slow
}
{
   0aed18904903c64a4acf90158d56c726
   Memcheck:Leak
   match-leak-kinds: reachable
   fun:_Znwm
   obj:/usr/lib/x86_64-linux-gnu/libLLVM-11.so.1
   fun:__pthread_once_slow
   fun:_ZN4llvm32initializeImplicitNullChecksPassERNS_12PassRegistryE
   fun:_ZN4llvm17initializeCodeGenERNS_12PassRegistryE
   fun:_ZN4llvm16TargetPassConfigC1ERNS_17LLVMTargetMachineERNS_6legacy15PassManagerBaseE
   obj:/usr/lib/x86_64-linux-gnu/libLLVM-11.so.1
   fun:_ZN4llvm17LLVMTargetMachine19addPassesToEmitFileERNS_6legacy15PassManagerBaseERNS_17raw_pwrite_streamEPS4_NS_15CodeGenFileTypeEbPNS_28MachineModuleInfoWrapperPassE
   obj:/usr/lib/x86_64-linux-gnu/dri/radeonsi_dri.so
   obj:/usr/lib/x86_64-linux-gnu/dri/radeonsi_dri.so
   obj:/usr/lib/x86_64-linux-gnu/dri/radeonsi_dri.so
   obj:/usr/lib/x86_64-linux-gnu/dri/radeonsi_dri.so
}
{
   5c66226cb1b9acdfd605f3e6692c1dd9
   Memcheck:Leak
   match-leak-kinds: reachable
   fun:malloc
   fun:open_path
   fun:_dl_map_object
   fun:dl_open_worker
   fun:_dl_catch_exception
   fun:_dl_open
   fun:dlopen_doit
   fun:_dl_catch_exception
   fun:_dl_catch_error
   fun:_dlerror_run
   fun:dlopen@@GLIBC_2.2.5
   obj:/usr/lib/x86_64-linux-gnu/libQt6Core.so.6.2.4
}
{
   c92af1a19be72198bdbb3ad7c6b863ba
   Memcheck:Leak
   match-leak-kinds: reachable
   fun:_Znwm
   obj:/usr/lib/x86_64-linux-gnu/libLLVM-11.so.1
   obj:/usr/lib/x86_64-linux-gnu/libLLVM-11.so.1
   obj:/usr/lib/x86_64-linux-gnu/libLLVM-11.so.1
   obj:/usr/lib/x86_64-linux-gnu/libLLVM-11.so.1
   obj:/usr/lib/x86_64-linux-gnu/libLLVM-11.so.1
   obj:/usr/lib/x86_64-linux-gnu/libLLVM-11.so.1
   fun:call_init.part.0
   fun:call_init
   fun:_dl_init
   fun:_dl_catch_exception
   fun:dl_open_worker
   fun:_dl_catch_exception
}
{
   4019f563e33e6a60d6c54166f9b92ee1
   Memcheck:Leak
   match-leak-kinds: reachable
   fun:calloc
   fun:g_malloc0
   fun:g_main_context_new
   fun:g_main_context_default
   fun:g_main_context_push_thread_default
   fun:_ZN27QEventDispatcherGlibPrivateC1EP13_GMainContext
   fun:_ZN20QEventDispatcherGlibC1EP7QObject
   obj:/usr/lib/x86_64-linux-gnu/libQt6Core.so.6.2.4
   obj:/usr/lib/x86_64-linux-gnu/libQt6Core.so.6.2.4
   obj:/usr/lib/x86_64-linux-gnu/libQt6Core.so.6.2.4
   fun:start_thread
   fun:clone
}
{
   1e6f893a023bb42b758d5473b9243d39
   Memcheck:Leak
   match-leak-kinds: reachable
   fun:_Znwm
   obj:/usr/lib/x86_64-linux-gnu/libLLVM-11.so.1
   fun:_ZN4llvm12PassRegistry12registerPassERKNS_8PassInfoEb
   obj:/usr/lib/x86_64-linux-gnu/libLLVM-11.so.1
   fun:__pthread_once_slow
   fun:_ZN4llvm36initializeCFLSteensAAWrapperPassPassERNS_12PassRegistryE
   obj:/usr/lib/x86_64-linux-gnu/libLLVM-11.so.1
   fun:__pthread_once_slow
   fun:_ZN4llvm34initializeAAResultsWrapperPassPassERNS_12PassRegistryE
   obj:/usr/lib/x86_64-linux-gnu/libLLVM-11.so.1
   fun:__pthread_once_slow
   fun:_ZN4llvm32initializeScopInfoRegionPassPassERNS_12PassRegistryE
}
{
   4b7469233c9c93d78be2edb88fee7fc0
   Memcheck:Leak
   match-leak-kinds: reachable
   fun:_Znwm
   obj:/usr/lib/x86_64-linux-gnu/libLLVM-11.so.1
   fun:_ZN4llvm12PassRegistry12registerPassERKNS_8PassInfoEb
   obj:/usr/lib/x86_64-linux-gnu/libLLVM-11.so.1
   fun:__pthread_once_slow
   fun:_ZN4llvm38initializeDominatorTreeWrapperPassPassERNS_12PassRegistryE
   obj:/usr/lib/x86_64-linux-gnu/libLLVM-11.so.1
   fun:__pthread_once_slow
   fun:_ZN4llvm32initializeBasicAAWrapperPassPassERNS_12PassRegistryE
   obj:/usr/lib/x86_64-linux-gnu/libLLVM-11.so.1
   fun:__pthread_once_slow
   fun:_ZN4llvm34initializeAAResultsWrapperPassPassERNS_12PassRegistryE
}
{
   7340598b72e018c8726a2abdd8caedc7
   Memcheck:Leak
   match-leak-kinds: reachable
   fun:_Znwm
   obj:/usr/lib/x86_64-linux-gnu/libLLVM-11.so.1
   fun:_ZN4llvm12PassRegistry12registerPassERKNS_8PassInfoEb
   obj:/usr/lib/x86_64-linux-gnu/libLLVM-11.so.1
   fun:__pthread_once_slow
   fun:_ZN4llvm35initializeMaximalStaticExpanderPassERNS_12PassRegistryE
   fun:_ZN5polly21initializePollyPassesERN4llvm12PassRegistryE
   obj:/usr/lib/x86_64-linux-gnu/libLLVM-11.so.1
   fun:call_init.part.0
   fun:call_init
   fun:_dl_init
   fun:_dl_catch_exception
   fun:dl_open_worker
}
{
   64afaeaec8093ce06765bd10c4473000
   Memcheck:Leak
   match-leak-kinds: reachable
   fun:_Znwm
   obj:/usr/lib/x86_64-linux-gnu/libLLVM-11.so.1
   fun:__pthread_once_slow
   fun:_ZN4llvm29createAlwaysInlinerLegacyPassEb
   fun:LLVMAddAlwaysInlinerPass
   obj:/usr/lib/x86_64-linux-gnu/dri/radeonsi_dri.so
   obj:/usr/lib/x86_64-linux-gnu/dri/radeonsi_dri.so
   obj:/usr/lib/x86_64-linux-gnu/dri/radeonsi_dri.so
   obj:/usr/lib/x86_64-linux-gnu/dri/radeonsi_dri.so
   obj:/usr/lib/x86_64-linux-gnu/dri/radeonsi_dri.so
   fun:start_thread
   fun:clone
}
{
   9a2e689a7497d2c4f403720b5e4bf7a9
   Memcheck:Leak
   match-leak-kinds: reachable
   fun:_Znwm
   obj:/usr/lib/x86_64-linux-gnu/libLLVM-11.so.1
   fun:_ZN4llvm12PassRegistry12registerPassERKNS_8PassInfoEb
   obj:/usr/lib/x86_64-linux-gnu/libLLVM-11.so.1
   fun:__pthread_once_slow
   fun:_ZN4llvm38initializeMachineDominanceFrontierPassERNS_12PassRegistryE
   obj:/usr/lib/x86_64-linux-gnu/libLLVM-11.so.1
   fun:__pthread_once_slow
   fun:_ZN4llvm35initializeMachineRegionInfoPassPassERNS_12PassRegistryE
   fun:_ZN4llvm17initializeCodeGenERNS_12PassRegistryE
   fun:_ZN4llvm16TargetPassConfigC1ERNS_17LLVMTargetMachineERNS_6legacy15PassManagerBaseE
   obj:/usr/lib/x86_64-linux-gnu/libLLVM-11.so.1
}
{
   ecf0ae9a04e5508848330e175a170380
   Memcheck:Leak
   match-leak-kinds: reachable
   fun:_Znwm
   obj:/usr/lib/x86_64-linux-gnu/libLLVM-11.so.1
   fun:_ZN4llvm12PassRegistry12registerPassERKNS_8PassInfoEb
   obj:/usr/lib/x86_64-linux-gnu/libLLVM-11.so.1
   fun:__pthread_once_slow
   fun:_ZN4llvm44initializeTargetTransformInfoWrapperPassPassERNS_12PassRegistryE
   obj:/usr/lib/x86_64-linux-gnu/libLLVM-11.so.1
   fun:__pthread_once_slow
   fun:_ZN4llvm34initializeIslScheduleOptimizerPassERNS_12PassRegistryE
   fun:_ZN5polly21initializePollyPassesERN4llvm12PassRegistryE
   obj:/usr/lib/x86_64-linux-gnu/libLLVM-11.so.1
   fun:call_init.part.0
}
{
   867254803e82d273579ce57baaa9edfc
   Memcheck:Leak
   match-leak-kinds: reachable
   fun:_Znwm
   obj:/usr/lib/x86_64-linux-gnu/libLLVM-11.so.1
   fun:__pthread_once_slow
   fun:_ZN4llvm26initializeGCModuleInfoPassERNS_12PassRegistryE
   fun:_ZN4llvm17initializeCodeGenERNS_12PassRegistryE
   fun:_ZN4llvm16TargetPassConfigC1ERNS_17LLVMTargetMachineERNS_6legacy15PassManagerBaseE
   obj:/usr/lib/x86_64-linux-gnu/libLLVM-11.so.1
   fun:_ZN4llvm17LLVMTargetMachine19addPassesToEmitFileERNS_6legacy15PassManagerBaseERNS_17raw_pwrite_streamEPS4_NS_15CodeGenFileTypeEbPNS_28MachineModuleInfoWrapperPassE
   obj:/usr/lib/x86_64-linux-gnu/dri/radeonsi_dri.so
   obj:/usr/lib/x86_64-linux-gnu/dri/radeonsi_dri.so
   obj:/usr/lib/x86_64-linux-gnu/dri/radeonsi_dri.so
   obj:/usr/lib/x86_64-linux-gnu/dri/radeonsi_dri.so
}
{
   89ded745f7c4ff80056aeb6b0db7f39c
   Memcheck:Leak
   match-leak-kinds: reachable
   fun:_Znwm
   obj:/usr/lib/x86_64-linux-gnu/libLLVM-11.so.1
   fun:__pthread_once_slow
   fun:_ZN4llvm36initializePostRAHazardRecognizerPassERNS_12PassRegistryE
   fun:_ZN4llvm17initializeCodeGenERNS_12PassRegistryE
   fun:_ZN4llvm16TargetPassConfigC1ERNS_17LLVMTargetMachineERNS_6legacy15PassManagerBaseE
   obj:/usr/lib/x86_64-linux-gnu/libLLVM-11.so.1
   fun:_ZN4llvm17LLVMTargetMachine19addPassesToEmitFileERNS_6legacy15PassManagerBaseERNS_17raw_pwrite_streamEPS4_NS_15CodeGenFileTypeEbPNS_28MachineModuleInfoWrapperPassE
   obj:/usr/lib/x86_64-linux-gnu/dri/radeonsi_dri.so
   obj:/usr/lib/x86_64-linux-gnu/dri/radeonsi_dri.so
   obj:/usr/lib/x86_64-linux-gnu/dri/radeonsi_dri.so
   obj:/usr/lib/x86_64-linux-gnu/dri/radeonsi_dri.so
}
{
   35b06d15b35bed11987699097a2b1dba
   Memcheck:Leak
   match-leak-kinds: reachable
   fun:malloc
   fun:_XrmInternalStringToQuark
   fun:_XlcGetLocaleDataBase
   obj:/usr/lib/x86_64-linux-gnu/libX11.so.6.4.0
   obj:/usr/lib/x86_64-linux-gnu/libX11.so.6.4.0
   fun:_XlcCreateLC
   fun:_XlcUtf8Loader
   fun:_XOpenLC
   fun:XmbTextListToTextProperty
   fun:_ZN10QXcbWindow14setWindowTitleEPK14QXcbConnectionjRK7QString
   fun:_ZN14QXcbConnection19getQtSelectionOwnerEv
   obj:/usr/lib/x86_64-linux-gnu/libQt6XcbQpa.so.6.2.4
}
{
   4a1a44b1852be35e30e9f22a17603353
   Memcheck:Leak
   match-leak-kinds: reachable
   fun:malloc
   fun:uprv_getDefaultLocaleID_67
   fun:_ZN6icu_6727locale_set_default_internalEPKcR10UErrorCode
   fun:_ZN6icu_676Locale10getDefaultEv
   fun:_ZN6icu_676Locale4initEPKca
   fun:_ZN6icu_676LocaleC1Ev
   obj:/usr/lib/x86_64-linux-gnu/libicuuc.so.67.1
   fun:_ZN6icu_676Locale14getLocaleCacheEv
   fun:_ZN6icu_676Locale9getLocaleEi
   fun:_ZN6icu_6713CollationRoot4loadER10UErrorCode
   fun:_ZN6icu_6713CollationRoot17getRootCacheEntryER10UErrorCode
   fun:_ZN6icu_6715CollationLoader13loadTailoringERKNS_6LocaleER10UErrorCode
}
{
   372bac58aeda41d365ba88f5865798af
   Memcheck:Leak
   match-leak-kinds: reachable
   fun:_Znwm
   obj:/usr/lib/x86_64-linux-gnu/libLLVM-11.so.1
   fun:_ZN4llvm12PassRegistry12registerPassERKNS_8PassInfoEb
   obj:/usr/lib/x86_64-linux-gnu/libLLVM-11.so.1
   fun:__pthread_once_slow
   fun:_ZN4llvm41initializeGISelCSEAnalysisWrapperPassPassERNS_12PassRegistryE
   obj:/usr/lib/x86_64-linux-gnu/libLLVM-11.so.1
   fun:__pthread_once_slow
   fun:_ZN4llvm26initializeIRTranslatorPassERNS_12PassRegistryE
   fun:_ZN4llvm20initializeGlobalISelERNS_12PassRegistryE
   fun:LLVMInitializeAMDGPUTarget
   obj:/usr/lib/x86_64-linux-gnu/dri/radeonsi_dri.so
}
{
   30581f6990662017474e3dedceb750cf
   Memcheck:Addr8
   fun:strncmp
   fun:is_dst
   fun:_dl_dst_substitute
   fun:fillin_rpath.isra.0
   fun:decompose_rpath
   fun:cache_rpath
   fun:cache_rpath
   fun:_dl_map_object
   fun:openaux
   fun:_dl_catch_exception
   fun:_dl_map_object_deps
   fun:dl_open_worker
   fun:_dl_catch_exception
   fun:_dl_open
}
{
   b41d3fb4a626c05a2338878381de0fb7
   Memcheck:Leak
   match-leak-kinds: reachable
   fun:_Znwm
   obj:/usr/lib/x86_64-linux-gnu/libLLVM-11.so.1
   fun:__pthread_once_slow
   fun:_ZN4llvm31initializeInstructionSelectPassERNS_12PassRegistryE
   fun:LLVMInitializeAMDGPUTarget
   obj:/usr/lib/x86_64-linux-gnu/dri/radeonsi_dri.so
   fun:__pthread_once_slow
   obj:/usr/lib/x86_64-linux-gnu/dri/radeonsi_dri.so
   obj:/usr/lib/x86_64-linux-gnu/dri/radeonsi_dri.so
   obj:/usr/lib/x86_64-linux-gnu/dri/radeonsi_dri.so
   obj:/usr/lib/x86_64-linux-gnu/dri/radeonsi_dri.so
   fun:start_thread
}
{
   5f4a5533f58cf8c9bf366288b2ded819
   Memcheck:Leak
   match-leak-kinds: reachable
   fun:_Znwm
   obj:/usr/lib/x86_64-linux-gnu/libLLVM-11.so.1
   fun:__pthread_once_slow
   fun:_ZN4llvm18createEarlyCSEPassEb
   fun:LLVMAddEarlyCSEMemSSAPass
   obj:/usr/lib/x86_64-linux-gnu/dri/radeonsi_dri.so
   obj:/usr/lib/x86_64-linux-gnu/dri/radeonsi_dri.so
   obj:/usr/lib/x86_64-linux-gnu/dri/radeonsi_dri.so
   obj:/usr/lib/x86_64-linux-gnu/dri/radeonsi_dri.so
   obj:/usr/lib/x86_64-linux-gnu/dri/radeonsi_dri.so
   fun:start_thread
   fun:clone
}
{
   c91c549ac0ca4dddff40154a2fc3222e
   Memcheck:Leak
   match-leak-kinds: reachable
   fun:_Znwm
   obj:/usr/lib/x86_64-linux-gnu/libLLVM-11.so.1
   fun:__pthread_once_slow
   fun:_ZN4llvm36createStraightLineStrengthReducePassEv
   obj:/usr/lib/x86_64-linux-gnu/libLLVM-11.so.1
   fun:_ZN4llvm16TargetPassConfig13addISelPassesEv
   fun:_ZN4llvm17LLVMTargetMachine19addPassesToEmitFileERNS_6legacy15PassManagerBaseERNS_17raw_pwrite_streamEPS4_NS_15CodeGenFileTypeEbPNS_28MachineModuleInfoWrapperPassE
   obj:/usr/lib/x86_64-linux-gnu/dri/radeonsi_dri.so
   obj:/usr/lib/x86_64-linux-gnu/dri/radeonsi_dri.so
   obj:/usr/lib/x86_64-linux-gnu/dri/radeonsi_dri.so
   obj:/usr/lib/x86_64-linux-gnu/dri/radeonsi_dri.so
   obj:/usr/lib/x86_64-linux-gnu/dri/radeonsi_dri.so
}
{
   6c1f66b79d70becc87289005ff441422
   Memcheck:Leak
   match-leak-kinds: reachable
   fun:_Znwm
   obj:/usr/lib/x86_64-linux-gnu/libLLVM-11.so.1
   fun:_ZN4llvm12PassRegistry12registerPassERKNS_8PassInfoEb
   obj:/usr/lib/x86_64-linux-gnu/libLLVM-11.so.1
   fun:__pthread_once_slow
   fun:_ZN4llvm30initializeCFIInstrInserterPassERNS_12PassRegistryE
   fun:_ZN4llvm17initializeCodeGenERNS_12PassRegistryE
   fun:_ZN4llvm16TargetPassConfigC1ERNS_17LLVMTargetMachineERNS_6legacy15PassManagerBaseE
   obj:/usr/lib/x86_64-linux-gnu/libLLVM-11.so.1
   fun:_ZN4llvm17LLVMTargetMachine19addPassesToEmitFileERNS_6legacy15PassManagerBaseERNS_17raw_pwrite_streamEPS4_NS_15CodeGenFileTypeEbPNS_28MachineModuleInfoWrapperPassE
   obj:/usr/lib/x86_64-linux-gnu/dri/radeonsi_dri.so
   obj:/usr/lib/x86_64-linux-gnu/dri/radeonsi_dri.so
}
{
   76aa328a12d88413a506de6a5ff34b80
   Memcheck:Leak
   match-leak-kinds: reachable
   fun:malloc
   obj:/usr/lib/x86_64-linux-gnu/libglib-2.0.so.0.6600.8
   fun:g_private_get
   fun:g_thread_self
   fun:g_main_context_acquire
   fun:g_main_context_push_thread_default
   fun:_ZN27QEventDispatcherGlibPrivateC1EP13_GMainContext
   fun:_ZN20QEventDispatcherGlibC1EP7QObject
   obj:/usr/lib/x86_64-linux-gnu/libQt6Core.so.6.2.4
   obj:/usr/lib/x86_64-linux-gnu/libQt6Core.so.6.2.4
   obj:/usr/lib/x86_64-linux-gnu/libQt6Core.so.6.2.4
   fun:start_thread
}
{
   a72448637f6f17ca313fdfd42e55fe8f
   Memcheck:Addr8
   fun:strncmp
   fun:is_dst
   fun:_dl_dst_count
   fun:expand_dynamic_string_token
   fun:fillin_rpath.isra.0
   fun:decompose_rpath
   fun:cache_rpath
   fun:cache_rpath
   fun:_dl_map_object
   fun:openaux
   fun:_dl_catch_exception
   fun:_dl_map_object_deps
   fun:dl_open_worker
   fun:_dl_catch_exception
}
{
   538aa65fce77191caec98408a246ee2b
   Memcheck:Leak
   match-leak-kinds: reachable
   fun:malloc
   fun:_XlcAddLoader
   fun:_XlcInitLoader
   fun:_XOpenLC
   fun:XmbTextListToTextProperty
   fun:_ZN10QXcbWindow14setWindowTitleEPK14QXcbConnectionjRK7QString
   fun:_ZN14QXcbConnection19getQtSelectionOwnerEv
   obj:/usr/lib/x86_64-linux-gnu/libQt6XcbQpa.so.6.2.4
   fun:_ZN14QXcbConnection17initializeScreensEv
   fun:_ZN14QXcbConnectionC1EP19QXcbNativeInterfacebjPKc
   fun:_ZN15QXcbIntegrationC1ERK5QListI7QStringERiPPc
   obj:/usr/lib/x86_64-linux-gnu/qt6/plugins/platforms/libqxcb.so
}
{
   81a626e51a5c5c49a5d96a9c2a2fe5c6
   Memcheck:Leak
   match-leak-kinds: reachable
   fun:malloc
   fun:IceRegisterForProtocolSetup
   fun:SmcOpenConnection
   obj:/usr/lib/x86_64-linux-gnu/libQt6XcbQpa.so.6.2.4
   fun:_ZNK15QXcbIntegration28createPlatformSessionManagerERK7QStringS2_
   obj:/usr/lib/x86_64-linux-gnu/libQt6Gui.so.6.2.4
   fun:_ZN15QSessionManagerC1EP15QGuiApplicationR7QStringS3_
   fun:_ZN22QGuiApplicationPrivate4initEv
   fun:_ZN19QApplicationPrivate4initEv
   fun:main
}
{
   2b5082ee206af8e4d5906463ba4e1119
   Memcheck:Leak
   match-leak-kinds: reachable
   fun:_Znwm
   obj:/usr/lib/x86_64-linux-gnu/libLLVM-11.so.1
   obj:/usr/lib/x86_64-linux-gnu/libLLVM-11.so.1
   obj:/usr/lib/x86_64-linux-gnu/libLLVM-11.so.1
   obj:/usr/lib/x86_64-linux-gnu/libLLVM-11.so.1
   obj:/usr/lib/x86_64-linux-gnu/libLLVM-11.so.1
   fun:call_init.part.0
   fun:call_init
   fun:_dl_init
   fun:_dl_catch_exception
   fun:dl_open_worker
   fun:_dl_catch_exception
   fun:_dl_open
}
{
   de3f1e118d3faf20ae165890fa15b690
   Memcheck:Leak
   match-leak-kinds: reachable
   fun:_Znwm
   obj:/usr/lib/x86_64-linux-gnu/libLLVM-11.so.1
   fun:_ZN4llvm12PassRegistry12registerPassERKNS_8PassInfoEb
   obj:/usr/lib/x86_64-linux-gnu/libLLVM-11.so.1
   fun:__pthread_once_slow
   fun:_ZN4llvm40initializeDeadMachineInstructionElimPassERNS_12PassRegistryE
   fun:_ZN4llvm17initializeCodeGenERNS_12PassRegistryE
   fun:_ZN4llvm16TargetPassConfigC1ERNS_17LLVMTargetMachineERNS_6legacy15PassManagerBaseE
   obj:/usr/lib/x86_64-linux-gnu/libLLVM-11.so.1
   fun:_ZN4llvm17LLVMTargetMachine19addPassesToEmitFileERNS_6legacy15PassManagerBaseERNS_17raw_pwrite_streamEPS4_NS_15CodeGenFileTypeEbPNS_28MachineModuleInfoWrapperPassE
   obj:/usr/lib/x86_64-linux-gnu/dri/radeonsi_dri.so
   obj:/usr/lib/x86_64-linux-gnu/dri/radeonsi_dri.so
}
{
   62797b133257898c3d647ed835096b56
   Memcheck:Leak
   match-leak-kinds: reachable
   fun:_Znwm
   obj:/usr/lib/x86_64-linux-gnu/libLLVM-11.so.1
   fun:__pthread_once_slow
   fun:_ZN4llvm25initializeEdgeBundlesPassERNS_12PassRegistryE
   obj:/usr/lib/x86_64-linux-gnu/libLLVM-11.so.1
   fun:__pthread_once_slow
   fun:_ZN4llvm22initializeRAGreedyPassERNS_12PassRegistryE
   fun:_ZN4llvm17initializeCodeGenERNS_12PassRegistryE
   fun:_ZN4llvm16TargetPassConfigC1ERNS_17LLVMTargetMachineERNS_6legacy15PassManagerBaseE
   obj:/usr/lib/x86_64-linux-gnu/libLLVM-11.so.1
   fun:_ZN4llvm17LLVMTargetMachine19addPassesToEmitFileERNS_6legacy15PassManagerBaseERNS_17raw_pwrite_streamEPS4_NS_15CodeGenFileTypeEbPNS_28MachineModuleInfoWrapperPassE
   obj:/usr/lib/x86_64-linux-gnu/dri/radeonsi_dri.so
}
{
   3e3f7b36645c96133ec4f06f7b78df37
   Memcheck:Leak
   match-leak-kinds: reachable
   fun:malloc
   obj:/usr/lib/x86_64-linux-gnu/libfontconfig.so.1.12.0
   fun:FcStrSetAdd
   obj:/usr/lib/x86_64-linux-gnu/libfontconfig.so.1.12.0
   fun:FcGetDefaultLangs
   obj:/usr/lib/x86_64-linux-gnu/libfontconfig.so.1.12.0
   fun:FcFontSetList
   fun:FcFontList
   fun:_ZN19QFontconfigDatabase20populateFontDatabaseEv
   obj:/usr/lib/x86_64-linux-gnu/libQt6Gui.so.6.2.4
   fun:_ZN20QFontDatabasePrivate8findFontERK8QFontDefib
   fun:_ZN20QFontDatabasePrivate4loadEPK12QFontPrivatei
}
{
   a6a2c39f3b3e430c8eeb4c4ea6d60163
   Memcheck:Leak
   match-leak-kinds: reachable
   fun:_Znwm
   obj:/usr/lib/x86_64-linux-gnu/libLLVM-11.so.1
   fun:_ZN4llvm12PassRegistry12registerPassERKNS_8PassInfoEb
   obj:/usr/lib/x86_64-linux-gnu/libLLVM-11.so.1
   fun:__pthread_once_slow
   fun:_ZN4llvm25initializeIfConverterPassERNS_12PassRegistryE
   fun:_ZN4llvm17initializeCodeGenERNS_12PassRegistryE
   fun:_ZN4llvm16TargetPassConfigC1ERNS_17LLVMTargetMachineERNS_6legacy15PassManagerBaseE
   obj:/usr/lib/x86_64-linux-gnu/libLLVM-11.so.1
   fun:_ZN4llvm17LLVMTargetMachine19addPassesToEmitFileERNS_6legacy15PassManagerBaseERNS_17raw_pwrite_streamEPS4_NS_15CodeGenFileTypeEbPNS_28MachineModuleInfoWrapperPassE
   obj:/usr/lib/x86_64-linux-gnu/dri/radeonsi_dri.so
   obj:/usr/lib/x86_64-linux-gnu/dri/radeonsi_dri.so
}
{
   7c3a60da0eb3462758e2da5f7fffd971
   Memcheck:Leak
   match-leak-kinds: reachable
   fun:_Znwm
   obj:/usr/lib/x86_64-linux-gnu/libLLVM-11.so.1
   fun:_ZN4llvm12PassRegistry12registerPassERKNS_8PassInfoEb
   obj:/usr/lib/x86_64-linux-gnu/libLLVM-11.so.1
   fun:__pthread_once_slow
   fun:_ZN4llvm25initializeSlotIndexesPassERNS_12PassRegistryE
   obj:/usr/lib/x86_64-linux-gnu/libLLVM-11.so.1
   fun:__pthread_once_slow
   fun:_ZN4llvm27initializeLiveIntervalsPassERNS_12PassRegistryE
   obj:/usr/lib/x86_64-linux-gnu/libLLVM-11.so.1
   fun:__pthread_once_slow
   obj:/usr/lib/x86_64-linux-gnu/libLLVM-11.so.1
}
{
   234b26f5222129cad8f25b1768442e53
   Memcheck:Leak
   match-leak-kinds: reachable
   fun:_Znwm
   obj:/usr/lib/x86_64-linux-gnu/libLLVM-11.so.1
   fun:__pthread_once_slow
   fun:_ZN4llvm30initializeEarlyIfConverterPassERNS_12PassRegistryE
   fun:_ZN4llvm17initializeCodeGenERNS_12PassRegistryE
   fun:_ZN4llvm16TargetPassConfigC1ERNS_17LLVMTargetMachineERNS_6legacy15PassManagerBaseE
   obj:/usr/lib/x86_64-linux-gnu/libLLVM-11.so.1
   fun:_ZN4llvm17LLVMTargetMachine19addPassesToEmitFileERNS_6legacy15PassManagerBaseERNS_17raw_pwrite_streamEPS4_NS_15CodeGenFileTypeEbPNS_28MachineModuleInfoWrapperPassE
   obj:/usr/lib/x86_64-linux-gnu/dri/radeonsi_dri.so
   obj:/usr/lib/x86_64-linux-gnu/dri/radeonsi_dri.so
   obj:/usr/lib/x86_64-linux-gnu/dri/radeonsi_dri.so
   obj:/usr/lib/x86_64-linux-gnu/dri/radeonsi_dri.so
}
{
   f34495c2e7b0b45561636f24645d6f07
   Memcheck:Leak
   match-leak-kinds: reachable
   fun:calloc
   obj:/usr/lib/x86_64-linux-gnu/libX11.so.6.4.0
   obj:/usr/lib/x86_64-linux-gnu/libX11.so.6.4.0
   obj:/usr/lib/x86_64-linux-gnu/libX11.so.6.4.0
   fun:_XlcCreateLC
   fun:_XlcUtf8Loader
   fun:_XOpenLC
   fun:XmbTextListToTextProperty
   fun:_ZN10QXcbWindow14setWindowTitleEPK14QXcbConnectionjRK7QString
   fun:_ZN14QXcbConnection19getQtSelectionOwnerEv
   obj:/usr/lib/x86_64-linux-gnu/libQt6XcbQpa.so.6.2.4
   fun:_ZN14QXcbConnection17initializeScreensEv
}
{
   f11058c89c0d4280c97491a6f737c283
   Memcheck:Leak
   match-leak-kinds: reachable
   fun:_Znwm
   obj:/usr/lib/x86_64-linux-gnu/libLLVM-11.so.1
   fun:_ZN4llvm12PassRegistry12registerPassERKNS_8PassInfoEb
   obj:/usr/lib/x86_64-linux-gnu/libLLVM-11.so.1
   fun:__pthread_once_slow
   fun:_ZN4llvm42initializeTargetLibraryInfoWrapperPassPassERNS_12PassRegistryE
   obj:/usr/lib/x86_64-linux-gnu/libLLVM-11.so.1
   fun:__pthread_once_slow
   fun:_ZN4llvm32initializeBasicAAWrapperPassPassERNS_12PassRegistryE
   obj:/usr/lib/x86_64-linux-gnu/libLLVM-11.so.1
   fun:__pthread_once_slow
   fun:_ZN4llvm34initializeAAResultsWrapperPassPassERNS_12PassRegistryE
}
{
   56ce3d191a305ea9cf14e89b5cdfbb0b
   Memcheck:Leak
   match-leak-kinds: reachable
   fun:realloc
   obj:/usr/lib/x86_64-linux-gnu/libX11.so.6.4.0
   obj:/usr/lib/x86_64-linux-gnu/libX11.so.6.4.0
   obj:/usr/lib/x86_64-linux-gnu/libX11.so.6.4.0
   fun:_XlcCreateLC
   fun:_XlcUtf8Loader
   fun:_XOpenLC
   fun:XmbTextListToTextProperty
   fun:_ZN10QXcbWindow14setWindowTitleEPK14QXcbConnectionjRK7QString
   fun:_ZN14QXcbConnection19getQtSelectionOwnerEv
   obj:/usr/lib/x86_64-linux-gnu/libQt6XcbQpa.so.6.2.4
   fun:_ZN14QXcbConnection17initializeScreensEv
}
{
   38514765dadb13718534501d0962148c
   Memcheck:Leak
   match-leak-kinds: reachable
   fun:_Znwm
   obj:/usr/lib/x86_64-linux-gnu/libLLVM-11.so.1
   fun:_ZN4llvm12PassRegistry12registerPassERKNS_8PassInfoEb
   obj:/usr/lib/x86_64-linux-gnu/libLLVM-11.so.1
   fun:__pthread_once_slow
   fun:_ZN4llvm33createPartiallyInlineLibCallsPassEv
   fun:_ZN4llvm16TargetPassConfig11addIRPassesEv
   obj:/usr/lib/x86_64-linux-gnu/libLLVM-11.so.1
   fun:_ZN4llvm16TargetPassConfig13addISelPassesEv
   fun:_ZN4llvm17LLVMTargetMachine19addPassesToEmitFileERNS_6legacy15PassManagerBaseERNS_17raw_pwrite_streamEPS4_NS_15CodeGenFileTypeEbPNS_28MachineModuleInfoWrapperPassE
   obj:/usr/lib/x86_64-linux-gnu/dri/radeonsi_dri.so
   obj:/usr/lib/x86_64-linux-gnu/dri/radeonsi_dri.so
}
{
   61d4a32367adca593bddb22441470262
   Memcheck:Leak
   match-leak-kinds: reachable
   fun:_Znwm
   obj:/usr/lib/x86_64-linux-gnu/libLLVM-11.so.1
   fun:_ZN4llvm12PassRegistry12registerPassERKNS_8PassInfoEb
   obj:/usr/lib/x86_64-linux-gnu/libLLVM-11.so.1
   fun:__pthread_once_slow
   fun:_ZN4llvm27initializeStackColoringPassERNS_12PassRegistryE
   fun:_ZN4llvm17initializeCodeGenERNS_12PassRegistryE
   fun:_ZN4llvm16TargetPassConfigC1ERNS_17LLVMTargetMachineERNS_6legacy15PassManagerBaseE
   obj:/usr/lib/x86_64-linux-gnu/libLLVM-11.so.1
   fun:_ZN4llvm17LLVMTargetMachine19addPassesToEmitFileERNS_6legacy15PassManagerBaseERNS_17raw_pwrite_streamEPS4_NS_15CodeGenFileTypeEbPNS_28MachineModuleInfoWrapperPassE
   obj:/usr/lib/x86_64-linux-gnu/dri/radeonsi_dri.so
   obj:/usr/lib/x86_64-linux-gnu/dri/radeonsi_dri.so
}
{
   5b0699c58c6ff6a0895e22e760281a58
   Memcheck:Leak
   match-leak-kinds: reachable
   fun:_Znwm
   obj:/usr/lib/x86_64-linux-gnu/libLLVM-11.so.1
   fun:_ZN4llvm12PassRegistry12registerPassERKNS_8PassInfoEb
   obj:/usr/lib/x86_64-linux-gnu/libLLVM-11.so.1
   fun:__pthread_once_slow
   fun:_ZN4llvm41initializeUnreachableMachineBlockElimPassERNS_12PassRegistryE
   obj:/usr/lib/x86_64-linux-gnu/libLLVM-11.so.1
   fun:__pthread_once_slow
   fun:_ZN4llvm27initializeLiveVariablesPassERNS_12PassRegistryE
   fun:_ZN4llvm17initializeCodeGenERNS_12PassRegistryE
   fun:_ZN4llvm16TargetPassConfigC1ERNS_17LLVMTargetMachineERNS_6legacy15PassManagerBaseE
   obj:/usr/lib/x86_64-linux-gnu/libLLVM-11.so.1
}
{
   9f8acd096f3d4f7892dddc127db4408a
   Memcheck:Leak
   match-leak-kinds: reachable
   fun:_Znwm
   obj:/usr/lib/x86_64-linux-gnu/libLLVM-11.so.1
   fun:__pthread_once_slow
   fun:_ZN4llvm36initializeInterleavedLoadCombinePassERNS_12PassRegistryE
   fun:_ZN4llvm17initializeCodeGenERNS_12PassRegistryE
   fun:_ZN4llvm16TargetPassConfigC1ERNS_17LLVMTargetMachineERNS_6legacy15PassManagerBaseE
   obj:/usr/lib/x86_64-linux-gnu/libLLVM-11.so.1
   fun:_ZN4llvm17LLVMTargetMachine19addPassesToEmitFileERNS_6legacy15PassManagerBaseERNS_17raw_pwrite_streamEPS4_NS_15CodeGenFileTypeEbPNS_28MachineModuleInfoWrapperPassE
   obj:/usr/lib/x86_64-linux-gnu/dri/radeonsi_dri.so
   obj:/usr/lib/x86_64-linux-gnu/dri/radeonsi_dri.so
   obj:/usr/lib/x86_64-linux-gnu/dri/radeonsi_dri.so
   obj:/usr/lib/x86_64-linux-gnu/dri/radeonsi_dri.so
}
{
   cbc3d61a64753eeb562794177c5984a4
   Memcheck:Leak
   match-leak-kinds: reachable
   fun:_Znwm
   obj:/usr/lib/x86_64-linux-gnu/libLLVM-11.so.1
   fun:__pthread_once_slow
   fun:_ZN4llvm40initializeScalarEvolutionWrapperPassPassERNS_12PassRegistryE
   obj:/usr/lib/x86_64-linux-gnu/libLLVM-11.so.1
   fun:__pthread_once_slow
   fun:_ZN4llvm31initializeSCEVAAWrapperPassPassERNS_12PassRegistryE
   obj:/usr/lib/x86_64-linux-gnu/libLLVM-11.so.1
   fun:__pthread_once_slow
   fun:_ZN4llvm34initializeAAResultsWrapperPassPassERNS_12PassRegistryE
   obj:/usr/lib/x86_64-linux-gnu/libLLVM-11.so.1
   fun:__pthread_once_slow
}
{
   56963c585509d672c3a588828e8a0eb2
   Memcheck:Leak
   match-leak-kinds: reachable
   fun:calloc
   fun:_XrmInternalStringToQuark
   obj:/usr/lib/x86_64-linux-gnu/libX11.so.6.4.0
   fun:XrmGetStringDatabase
   obj:/usr/lib/x86_64-linux-gnu/libX11.so.6.4.0
   fun:XGetDefault
   fun:_XcursorGetDisplayInfo
   fun:XcursorGetDefaultSize
   fun:XcursorLibraryLoadCursor
   obj:/usr/lib/x86_64-linux-gnu/libQt6XcbQpa.so.6.2.4
   obj:/usr/lib/x86_64-linux-gnu/libQt6XcbQpa.so.6.2.4
   obj:/usr/lib/x86_64-linux-gnu/libQt6XcbQpa.so.6.2.4
}
{
   2b2fb8947cfa42506681d5619cdf4674
   Memcheck:Leak
   match-leak-kinds: reachable
   fun:_Znwm
   obj:/usr/lib/x86_64-linux-gnu/libz3.so.4
   fun:call_init.part.0
   fun:call_init
   fun:_dl_init
   fun:_dl_catch_exception
   fun:dl_open_worker
   fun:_dl_catch_exception
   fun:_dl_open
   fun:dlopen_doit
   fun:_dl_catch_exception
   fun:_dl_catch_error
   fun:_dlerror_run
}
{
   e85e038ddbdbf0fa8135e0e53319a767
   Memcheck:Leak
   match-leak-kinds: reachable
   fun:_Znwm
   obj:/usr/lib/x86_64-linux-gnu/libLLVM-11.so.1
   fun:_ZN4llvm12PassRegistry12registerPassERKNS_8PassInfoEb
   obj:/usr/lib/x86_64-linux-gnu/libLLVM-11.so.1
   fun:__pthread_once_slow
   fun:_ZN4llvm17createSinkingPassEv
   obj:/usr/lib/x86_64-linux-gnu/libLLVM-11.so.1
   fun:_ZN4llvm16TargetPassConfig14addISelPrepareEv
   fun:_ZN4llvm16TargetPassConfig13addISelPassesEv
   fun:_ZN4llvm17LLVMTargetMachine19addPassesToEmitFileERNS_6legacy15PassManagerBaseERNS_17raw_pwrite_streamEPS4_NS_15CodeGenFileTypeEbPNS_28MachineModuleInfoWrapperPassE
   obj:/usr/lib/x86_64-linux-gnu/dri/radeonsi_dri.so
   obj:/usr/lib/x86_64-linux-gnu/dri/radeonsi_dri.so
}
{
   8f6b2a74a6f8539945fefc7f81d46e13
   Memcheck:Leak
   match-leak-kinds: reachable
   fun:_Znwm
   obj:/usr/lib/x86_64-linux-gnu/libLLVM-11.so.1
   fun:_ZN4llvm12PassRegistry12registerPassERKNS_8PassInfoEb
   obj:/usr/lib/x86_64-linux-gnu/libLLVM-11.so.1
   fun:__pthread_once_slow
   fun:_ZN4llvm29initializeMachineCombinerPassERNS_12PassRegistryE
   fun:_ZN4llvm17initializeCodeGenERNS_12PassRegistryE
   fun:_ZN4llvm16TargetPassConfigC1ERNS_17LLVMTargetMachineERNS_6legacy15PassManagerBaseE
   obj:/usr/lib/x86_64-linux-gnu/libLLVM-11.so.1
   fun:_ZN4llvm17LLVMTargetMachine19addPassesToEmitFileERNS_6legacy15PassManagerBaseERNS_17raw_pwrite_streamEPS4_NS_15CodeGenFileTypeEbPNS_28MachineModuleInfoWrapperPassE
   obj:/usr/lib/x86_64-linux-gnu/dri/radeonsi_dri.so
   obj:/usr/lib/x86_64-linux-gnu/dri/radeonsi_dri.so
}
{
   1370b1c5bed3e70ae38c60527b88fdbd
   Memcheck:Leak
   match-leak-kinds: reachable
   fun:_Znwm
   obj:/usr/lib/x86_64-linux-gnu/libLLVM-11.so.1
   fun:_ZN4llvm12PassRegistry12registerPassERKNS_8PassInfoEb
   obj:/usr/lib/x86_64-linux-gnu/libLLVM-11.so.1
   fun:__pthread_once_slow
   fun:_ZN4llvm29initializeDetectDeadLanesPassERNS_12PassRegistryE
   fun:_ZN4llvm17initializeCodeGenERNS_12PassRegistryE
   fun:_ZN4llvm16TargetPassConfigC1ERNS_17LLVMTargetMachineERNS_6legacy15PassManagerBaseE
   obj:/usr/lib/x86_64-linux-gnu/libLLVM-11.so.1
   fun:_ZN4llvm17LLVMTargetMachine19addPassesToEmitFileERNS_6legacy15PassManagerBaseERNS_17raw_pwrite_streamEPS4_NS_15CodeGenFileTypeEbPNS_28MachineModuleInfoWrapperPassE
   obj:/usr/lib/x86_64-linux-gnu/dri/radeonsi_dri.so
   obj:/usr/lib/x86_64-linux-gnu/dri/radeonsi_dri.so
}
{
   98653ec6f7368f86a564736a85f93d7e
   Memcheck:Leak
   match-leak-kinds: reachable
   fun:_Znwm
   obj:/usr/lib/x86_64-linux-gnu/libLLVM-11.so.1
   fun:__pthread_once_slow
   fun:_ZN4llvm44initializeUnreachableBlockElimLegacyPassPassERNS_12PassRegistryE
   fun:_ZN4llvm17initializeCodeGenERNS_12PassRegistryE
   fun:_ZN4llvm16TargetPassConfigC1ERNS_17LLVMTargetMachineERNS_6legacy15PassManagerBaseE
   obj:/usr/lib/x86_64-linux-gnu/libLLVM-11.so.1
   fun:_ZN4llvm17LLVMTargetMachine19addPassesToEmitFileERNS_6legacy15PassManagerBaseERNS_17raw_pwrite_streamEPS4_NS_15CodeGenFileTypeEbPNS_28MachineModuleInfoWrapperPassE
   obj:/usr/lib/x86_64-linux-gnu/dri/radeonsi_dri.so
   obj:/usr/lib/x86_64-linux-gnu/dri/radeonsi_dri.so
   obj:/usr/lib/x86_64-linux-gnu/dri/radeonsi_dri.so
   obj:/usr/lib/x86_64-linux-gnu/dri/radeonsi_dri.so
}
{
   c0d94a10827855eec2c8ec63d2b9c491
   Memcheck:Leak
   match-leak-kinds: reachable
   fun:malloc
   obj:/usr/lib/x86_64-linux-gnu/libfontconfig.so.1.12.0
   obj:/usr/lib/x86_64-linux-gnu/libfontconfig.so.1.12.0
   obj:/usr/lib/x86_64-linux-gnu/libfontconfig.so.1.12.0
   obj:/usr/lib/x86_64-linux-gnu/libexpat.so.1.6.12
   obj:/usr/lib/x86_64-linux-gnu/libexpat.so.1.6.12
   obj:/usr/lib/x86_64-linux-gnu/libexpat.so.1.6.12
   fun:XML_ParseBuffer
   obj:/usr/lib/x86_64-linux-gnu/libfontconfig.so.1.12.0
   obj:/usr/lib/x86_64-linux-gnu/libfontconfig.so.1.12.0
   obj:/usr/lib/x86_64-linux-gnu/libfontconfig.so.1.12.0
   obj:/usr/lib/x86_64-linux-gnu/libfontconfig.so.1.12.0
}
{
   e5602b59e97bf75f91ff2f86224e41a2
   Memcheck:Leak
   match-leak-kinds: reachable
   fun:calloc
   fun:_dl_check_map_versions
   fun:dl_open_worker
   fun:_dl_catch_exception
   fun:_dl_open
   fun:dlopen_doit
   fun:_dl_catch_exception
   fun:_dl_catch_error
   fun:_dlerror_run
   fun:dlopen@@GLIBC_2.2.5
   obj:/usr/lib/x86_64-linux-gnu/libGLX.so.0.0.0
   obj:/usr/lib/x86_64-linux-gnu/libGLX.so.0.0.0
}
{
   151a60e9bfde1ee3201595fb7dd173a9
   Memcheck:Leak
   match-leak-kinds: reachable
   fun:_Znwm
   obj:/usr/lib/x86_64-linux-gnu/libLLVM-11.so.1
   fun:_ZN4llvm12PassRegistry12registerPassERKNS_8PassInfoEb
   obj:/usr/lib/x86_64-linux-gnu/libLLVM-11.so.1
   fun:__pthread_once_slow
   fun:_ZN4llvm36initializeAssumptionCacheTrackerPassERNS_12PassRegistryE
   obj:/usr/lib/x86_64-linux-gnu/libLLVM-11.so.1
   fun:__pthread_once_slow
   fun:_ZN4llvm32initializeBasicAAWrapperPassPassERNS_12PassRegistryE
   obj:/usr/lib/x86_64-linux-gnu/libLLVM-11.so.1
   fun:__pthread_once_slow
   fun:_ZN4llvm34initializeAAResultsWrapperPassPassERNS_12PassRegistryE
}
{
   258db00a6971f869122f59d2f51c5a62
   Memcheck:Leak
   match-leak-kinds: reachable
   fun:_Znwm
   obj:/usr/lib/x86_64-linux-gnu/libLLVM-11.so.1
   fun:_ZN4llvm12PassRegistry12registerPassERKNS_8PassInfoEb
   obj:/usr/lib/x86_64-linux-gnu/libLLVM-11.so.1
   fun:__pthread_once_slow
   fun:_ZN4llvm40initializeScalarEvolutionWrapperPassPassERNS_12PassRegistryE
   obj:/usr/lib/x86_64-linux-gnu/libLLVM-11.so.1
   fun:__pthread_once_slow
   fun:_ZN4llvm31initializeSCEVAAWrapperPassPassERNS_12PassRegistryE
   obj:/usr/lib/x86_64-linux-gnu/libLLVM-11.so.1
   fun:__pthread_once_slow
   fun:_ZN4llvm34initializeAAResultsWrapperPassPassERNS_12PassRegistryE
}
{
   7c6e32f70b05deece68efbd8132a9d75
   Memcheck:Leak
   match-leak-kinds: reachable
   fun:_Znwm
   obj:/usr/lib/x86_64-linux-gnu/libLLVM-11.so.1
   fun:__pthread_once_slow
   fun:_ZN4llvm28initializePolyhedralInfoPassERNS_12PassRegistryE
   fun:_ZN5polly21initializePollyPassesERN4llvm12PassRegistryE
   obj:/usr/lib/x86_64-linux-gnu/libLLVM-11.so.1
   fun:call_init.part.0
   fun:call_init
   fun:_dl_init
   fun:_dl_catch_exception
   fun:dl_open_worker
   fun:_dl_catch_exception
   fun:_dl_open
}
{
   45674ae437c9c25fdd828b47d71c3984
   Memcheck:Leak
   match-leak-kinds: reachable
   fun:_Znwm
   obj:/usr/lib/x86_64-linux-gnu/libLLVM-11.so.1
   fun:__pthread_once_slow
   fun:_ZN4llvm27initializeStackColoringPassERNS_12PassRegistryE
   fun:_ZN4llvm17initializeCodeGenERNS_12PassRegistryE
   fun:_ZN4llvm16TargetPassConfigC1ERNS_17LLVMTargetMachineERNS_6legacy15PassManagerBaseE
   obj:/usr/lib/x86_64-linux-gnu/libLLVM-11.so.1
   fun:_ZN4llvm17LLVMTargetMachine19addPassesToEmitFileERNS_6legacy15PassManagerBaseERNS_17raw_pwrite_streamEPS4_NS_15CodeGenFileTypeEbPNS_28MachineModuleInfoWrapperPassE
   obj:/usr/lib/x86_64-linux-gnu/dri/radeonsi_dri.so
   obj:/usr/lib/x86_64-linux-gnu/dri/radeonsi_dri.so
   obj:/usr/lib/x86_64-linux-gnu/dri/radeonsi_dri.so
   obj:/usr/lib/x86_64-linux-gnu/dri/radeonsi_dri.so
}
{
   f4caa1f4a1d4026709710bc5f04715b4
   Memcheck:Leak
   match-leak-kinds: reachable
   fun:_Znwm
   obj:/usr/lib/x86_64-linux-gnu/libLLVM-11.so.1
   fun:__pthread_once_slow
   fun:_ZN4llvm36initializeFinalizeMachineBundlesPassERNS_12PassRegistryE
   fun:_ZN4llvm17initializeCodeGenERNS_12PassRegistryE
   fun:_ZN4llvm16TargetPassConfigC1ERNS_17LLVMTargetMachineERNS_6legacy15PassManagerBaseE
   obj:/usr/lib/x86_64-linux-gnu/libLLVM-11.so.1
   fun:_ZN4llvm17LLVMTargetMachine19addPassesToEmitFileERNS_6legacy15PassManagerBaseERNS_17raw_pwrite_streamEPS4_NS_15CodeGenFileTypeEbPNS_28MachineModuleInfoWrapperPassE
   obj:/usr/lib/x86_64-linux-gnu/dri/radeonsi_dri.so
   obj:/usr/lib/x86_64-linux-gnu/dri/radeonsi_dri.so
   obj:/usr/lib/x86_64-linux-gnu/dri/radeonsi_dri.so
   obj:/usr/lib/x86_64-linux-gnu/dri/radeonsi_dri.so
}
{
   962396bcb633fae281de4548039a82ec
   Memcheck:Leak
   match-leak-kinds: reachable
   fun:realloc
   fun:_XlcResolveLocaleName
   obj:/usr/lib/x86_64-linux-gnu/libX11.so.6.4.0
   obj:/usr/lib/x86_64-linux-gnu/libX11.so.6.4.0
   fun:_XlcCreateLC
   fun:_XlcUtf8Loader
   fun:_XOpenLC
   fun:XmbTextListToTextProperty
   fun:_ZN10QXcbWindow14setWindowTitleEPK14QXcbConnectionjRK7QString
   fun:_ZN14QXcbConnection19getQtSelectionOwnerEv
   obj:/usr/lib/x86_64-linux-gnu/libQt6XcbQpa.so.6.2.4
   fun:_ZN14QXcbConnection17initializeScreensEv
}
{
   0e1416c455143bd6c3783dbcaffd9a52
   Memcheck:Leak
   match-leak-kinds: reachable
   fun:_Znwm
   obj:/usr/lib/x86_64-linux-gnu/libLLVM-11.so.1
   fun:__pthread_once_slow
   fun:_ZN4llvm39initializePhysicalRegisterUsageInfoPassERNS_12PassRegistryE
   obj:/usr/lib/x86_64-linux-gnu/libLLVM-11.so.1
   fun:__pthread_once_slow
   fun:_ZN4llvm35initializeRegUsageInfoCollectorPassERNS_12PassRegistryE
   fun:_ZN4llvm17initializeCodeGenERNS_12PassRegistryE
   fun:_ZN4llvm16TargetPassConfigC1ERNS_17LLVMTargetMachineERNS_6legacy15PassManagerBaseE
   obj:/usr/lib/x86_64-linux-gnu/libLLVM-11.so.1
   fun:_ZN4llvm17LLVMTargetMachine19addPassesToEmitFileERNS_6legacy15PassManagerBaseERNS_17raw_pwrite_streamEPS4_NS_15CodeGenFileTypeEbPNS_28MachineModuleInfoWrapperPassE
   obj:/usr/lib/x86_64-linux-gnu/dri/radeonsi_dri.so
}
{
   aaab743b014945db479756fecfb141e7
   Memcheck:Leak
   match-leak-kinds: reachable
   fun:_Znwm
   obj:/usr/lib/x86_64-linux-gnu/libLLVM-11.so.1
   fun:_ZN4llvm12PassRegistry12registerPassERKNS_8PassInfoEb
   obj:/usr/lib/x86_64-linux-gnu/libLLVM-11.so.1
   fun:__pthread_once_slow
   fun:_ZN4llvm29initializeCodePreparationPassERNS_12PassRegistryE
   fun:_ZN5polly21initializePollyPassesERN4llvm12PassRegistryE
   obj:/usr/lib/x86_64-linux-gnu/libLLVM-11.so.1
   fun:call_init.part.0
   fun:call_init
   fun:_dl_init
   fun:_dl_catch_exception
   fun:dl_open_worker
}
{
   2762e131e1029c1cf1423bfd3c59b051
   Memcheck:Leak
   match-leak-kinds: reachable
   fun:_Znwm
   obj:/usr/lib/x86_64-linux-gnu/libLLVM-11.so.1
   fun:_ZN4llvm12PassRegistry12registerPassERKNS_8PassInfoEb
   obj:/usr/lib/x86_64-linux-gnu/libLLVM-11.so.1
   fun:__pthread_once_slow
   fun:_ZN4llvm35initializeLCSSAVerificationPassPassERNS_12PassRegistryE
   obj:/usr/lib/x86_64-linux-gnu/libLLVM-11.so.1
   fun:__pthread_once_slow
   fun:_ZN4llvm30initializeLCSSAWrapperPassPassERNS_12PassRegistryE
   fun:_ZN4llvm22initializeLoopPassPassERNS_12PassRegistryE
   obj:/usr/lib/x86_64-linux-gnu/libLLVM-11.so.1
   fun:__pthread_once_slow
}
{
   ee9bafad5bdeca2387740fa48273be6b
   Memcheck:Leak
   match-leak-kinds: reachable
   fun:_Znwm
   obj:/usr/lib/x86_64-linux-gnu/libLLVM-11.so.1
   fun:_ZN4llvm12PassRegistry12registerPassERKNS_8PassInfoEb
   obj:/usr/lib/x86_64-linux-gnu/libLLVM-11.so.1
   fun:__pthread_once_slow
   fun:_ZN4llvm36initializeInterleavedLoadCombinePassERNS_12PassRegistryE
   fun:_ZN4llvm17initializeCodeGenERNS_12PassRegistryE
   fun:_ZN4llvm16TargetPassConfigC1ERNS_17LLVMTargetMachineERNS_6legacy15PassManagerBaseE
   obj:/usr/lib/x86_64-linux-gnu/libLLVM-11.so.1
   fun:_ZN4llvm17LLVMTargetMachine19addPassesToEmitFileERNS_6legacy15PassManagerBaseERNS_17raw_pwrite_streamEPS4_NS_15CodeGenFileTypeEbPNS_28MachineModuleInfoWrapperPassE
   obj:/usr/lib/x86_64-linux-gnu/dri/radeonsi_dri.so
   obj:/usr/lib/x86_64-linux-gnu/dri/radeonsi_dri.so
}
{
   10e924b3a4254fea53a29266b3517580
   Memcheck:Leak
   match-leak-kinds: reachable
   fun:_Znwm
   obj:/usr/lib/x86_64-linux-gnu/libLLVM-11.so.1
   fun:__pthread_once_slow
   fun:_ZN4llvm29initializeLowerIntrinsicsPassERNS_12PassRegistryE
   fun:_ZN4llvm17initializeCodeGenERNS_12PassRegistryE
   fun:_ZN4llvm16TargetPassConfigC1ERNS_17LLVMTargetMachineERNS_6legacy15PassManagerBaseE
   obj:/usr/lib/x86_64-linux-gnu/libLLVM-11.so.1
   fun:_ZN4llvm17LLVMTargetMachine19addPassesToEmitFileERNS_6legacy15PassManagerBaseERNS_17raw_pwrite_streamEPS4_NS_15CodeGenFileTypeEbPNS_28MachineModuleInfoWrapperPassE
   obj:/usr/lib/x86_64-linux-gnu/dri/radeonsi_dri.so
   obj:/usr/lib/x86_64-linux-gnu/dri/radeonsi_dri.so
   obj:/usr/lib/x86_64-linux-gnu/dri/radeonsi_dri.so
   obj:/usr/lib/x86_64-linux-gnu/dri/radeonsi_dri.so
}
{
   1e4a3304c056d6f3cda644450d6eeee2
   Memcheck:Leak
   match-leak-kinds: reachable
   fun:_Znwm
   obj:/usr/lib/x86_64-linux-gnu/libLLVM-11.so.1
   fun:_ZN4llvm12PassRegistry12registerPassERKNS_8PassInfoEb
   obj:/usr/lib/x86_64-linux-gnu/libLLVM-11.so.1
   fun:__pthread_once_slow
   fun:_ZN4llvm14createLICMPassEv
   fun:LLVMAddLICMPass
   obj:/usr/lib/x86_64-linux-gnu/dri/radeonsi_dri.so
   obj:/usr/lib/x86_64-linux-gnu/dri/radeonsi_dri.so
   obj:/usr/lib/x86_64-linux-gnu/dri/radeonsi_dri.so
   obj:/usr/lib/x86_64-linux-gnu/dri/radeonsi_dri.so
   obj:/usr/lib/x86_64-linux-gnu/dri/radeonsi_dri.so
}
{
   e003c2f68db725a3d9d10ec54817cc65
   Memcheck:Leak
   match-leak-kinds: reachable
   fun:_Znwm
   obj:/usr/lib/x86_64-linux-gnu/libLLVM-11.so.1
   fun:_ZN4llvm12PassRegistry12registerPassERKNS_8PassInfoEb
   obj:/usr/lib/x86_64-linux-gnu/libLLVM-11.so.1
   fun:__pthread_once_slow
   fun:_ZN4llvm36initializePostRAHazardRecognizerPassERNS_12PassRegistryE
   fun:_ZN4llvm17initializeCodeGenERNS_12PassRegistryE
   fun:_ZN4llvm16TargetPassConfigC1ERNS_17LLVMTargetMachineERNS_6legacy15PassManagerBaseE
   obj:/usr/lib/x86_64-linux-gnu/libLLVM-11.so.1
   fun:_ZN4llvm17LLVMTargetMachine19addPassesToEmitFileERNS_6legacy15PassManagerBaseERNS_17raw_pwrite_streamEPS4_NS_15CodeGenFileTypeEbPNS_28MachineModuleInfoWrapperPassE
   obj:/usr/lib/x86_64-linux-gnu/dri/radeonsi_dri.so
   obj:/usr/lib/x86_64-linux-gnu/dri/radeonsi_dri.so
}
{
   dd4cc607e47b24ee958c6ce844f444e8
   Memcheck:Leak
   match-leak-kinds: reachable
   fun:_Znwm
   obj:/usr/lib/x86_64-linux-gnu/libLLVM-11.so.1
   fun:_ZN4llvm12PassRegistry12registerPassERKNS_8PassInfoEb
   obj:/usr/lib/x86_64-linux-gnu/libLLVM-11.so.1
   fun:__pthread_once_slow
   fun:_ZN4llvm32initializeEarlyTailDuplicatePassERNS_12PassRegistryE
   fun:_ZN4llvm17initializeCodeGenERNS_12PassRegistryE
   fun:_ZN4llvm16TargetPassConfigC1ERNS_17LLVMTargetMachineERNS_6legacy15PassManagerBaseE
   obj:/usr/lib/x86_64-linux-gnu/libLLVM-11.so.1
   fun:_ZN4llvm17LLVMTargetMachine19addPassesToEmitFileERNS_6legacy15PassManagerBaseERNS_17raw_pwrite_streamEPS4_NS_15CodeGenFileTypeEbPNS_28MachineModuleInfoWrapperPassE
   obj:/usr/lib/x86_64-linux-gnu/dri/radeonsi_dri.so
   obj:/usr/lib/x86_64-linux-gnu/dri/radeonsi_dri.so
}
{
   ea23939c3aca25582f12c77dc480cd2d
   Memcheck:Leak
   match-leak-kinds: reachable
   fun:_Znwm
   obj:/usr/lib/x86_64-linux-gnu/libLLVM-11.so.1
   fun:__pthread_once_slow
   fun:_ZN4llvm25initializeSlotIndexesPassERNS_12PassRegistryE
   obj:/usr/lib/x86_64-linux-gnu/libLLVM-11.so.1
   fun:__pthread_once_slow
   fun:_ZN4llvm27initializeLiveIntervalsPassERNS_12PassRegistryE
   obj:/usr/lib/x86_64-linux-gnu/libLLVM-11.so.1
   fun:__pthread_once_slow
   obj:/usr/lib/x86_64-linux-gnu/libLLVM-11.so.1
   fun:LLVMInitializeAMDGPUTarget
   obj:/usr/lib/x86_64-linux-gnu/dri/radeonsi_dri.so
}
{
   61bd91759d870d19335a23bd9add1356
   Memcheck:Leak
   match-leak-kinds: reachable
   fun:_Znwm
   obj:/usr/lib/x86_64-linux-gnu/libLLVM-11.so.1
   fun:__pthread_once_slow
   fun:_ZN4llvm24createUnifyLoopExitsPassEv
   obj:/usr/lib/x86_64-linux-gnu/libLLVM-11.so.1
   fun:_ZN4llvm16TargetPassConfig14addISelPrepareEv
   fun:_ZN4llvm16TargetPassConfig13addISelPassesEv
   fun:_ZN4llvm17LLVMTargetMachine19addPassesToEmitFileERNS_6legacy15PassManagerBaseERNS_17raw_pwrite_streamEPS4_NS_15CodeGenFileTypeEbPNS_28MachineModuleInfoWrapperPassE
   obj:/usr/lib/x86_64-linux-gnu/dri/radeonsi_dri.so
   obj:/usr/lib/x86_64-linux-gnu/dri/radeonsi_dri.so
   obj:/usr/lib/x86_64-linux-gnu/dri/radeonsi_dri.so
   obj:/usr/lib/x86_64-linux-gnu/dri/radeonsi_dri.so
}
{
   1142cbbdbd8df43ffe56e56762017b09
   Memcheck:Leak
   match-leak-kinds: reachable
   fun:_Znwm
   obj:/usr/lib/x86_64-linux-gnu/libLLVM-11.so.1
   fun:_ZN4llvm12PassRegistry12registerPassERKNS_8PassInfoEb
   obj:/usr/lib/x86_64-linux-gnu/libLLVM-11.so.1
   fun:__pthread_once_slow
   fun:_ZN4llvm23initializeLocalizerPassERNS_12PassRegistryE
   fun:_ZN4llvm20initializeGlobalISelERNS_12PassRegistryE
   fun:LLVMInitializeAMDGPUTarget
   obj:/usr/lib/x86_64-linux-gnu/dri/radeonsi_dri.so
   fun:__pthread_once_slow
   obj:/usr/lib/x86_64-linux-gnu/dri/radeonsi_dri.so
   obj:/usr/lib/x86_64-linux-gnu/dri/radeonsi_dri.so
}
{
   9dc8eb6b9588813956475be8a22c9dd3
   Memcheck:Leak
   match-leak-kinds: reachable
   fun:calloc
   fun:_ZN4llvm13StringMapImpl11RehashTableEj
   obj:/usr/lib/x86_64-linux-gnu/libLLVM-11.so.1
   fun:_ZN4llvm12PassRegistry12registerPassERKNS_8PassInfoEb
   obj:/usr/lib/x86_64-linux-gnu/libLLVM-11.so.1
   fun:__pthread_once_slow
   fun:_ZN4llvm35initializeMachineBlockPlacementPassERNS_12PassRegistryE
   fun:_ZN4llvm17initializeCodeGenERNS_12PassRegistryE
   fun:_ZN4llvm16TargetPassConfigC1ERNS_17LLVMTargetMachineERNS_6legacy15PassManagerBaseE
   obj:/usr/lib/x86_64-linux-gnu/libLLVM-11.so.1
   fun:_ZN4llvm17LLVMTargetMachine19addPassesToEmitFileERNS_6legacy15PassManagerBaseERNS_17raw_pwrite_streamEPS4_NS_15CodeGenFileTypeEbPNS_28MachineModuleInfoWrapperPassE
   obj:/usr/lib/x86_64-linux-gnu/dri/radeonsi_dri.so
}
{
   e037bf39c2728c0c717dc30dce884bcf
   Memcheck:Leak
   match-leak-kinds: reachable
   fun:_Znwm
   obj:/usr/lib/x86_64-linux-gnu/libLLVM-11.so.1
   fun:_ZN4llvm12PassRegistry12registerPassERKNS_8PassInfoEb
   obj:/usr/lib/x86_64-linux-gnu/libLLVM-11.so.1
   fun:__pthread_once_slow
   fun:_ZN4llvm24createFixIrreduciblePassEv
   obj:/usr/lib/x86_64-linux-gnu/libLLVM-11.so.1
   fun:_ZN4llvm16TargetPassConfig14addISelPrepareEv
   fun:_ZN4llvm16TargetPassConfig13addISelPassesEv
   fun:_ZN4llvm17LLVMTargetMachine19addPassesToEmitFileERNS_6legacy15PassManagerBaseERNS_17raw_pwrite_streamEPS4_NS_15CodeGenFileTypeEbPNS_28MachineModuleInfoWrapperPassE
   obj:/usr/lib/x86_64-linux-gnu/dri/radeonsi_dri.so
   obj:/usr/lib/x86_64-linux-gnu/dri/radeonsi_dri.so
}
{
   54a0b63f20f00348b2471bd8a5fbcd06
   Memcheck:Leak
   match-leak-kinds: reachable
   fun:_Znwm
   obj:/usr/lib/x86_64-linux-gnu/libLLVM-11.so.1
   fun:_ZN4llvm12PassRegistry12registerPassERKNS_8PassInfoEb
   obj:/usr/lib/x86_64-linux-gnu/libLLVM-11.so.1
   fun:__pthread_once_slow
   fun:_ZN4llvm28initializeCFGuardLongjmpPassERNS_12PassRegistryE
   fun:_ZN4llvm17initializeCodeGenERNS_12PassRegistryE
   fun:_ZN4llvm16TargetPassConfigC1ERNS_17LLVMTargetMachineERNS_6legacy15PassManagerBaseE
   obj:/usr/lib/x86_64-linux-gnu/libLLVM-11.so.1
   fun:_ZN4llvm17LLVMTargetMachine19addPassesToEmitFileERNS_6legacy15PassManagerBaseERNS_17raw_pwrite_streamEPS4_NS_15CodeGenFileTypeEbPNS_28MachineModuleInfoWrapperPassE
   obj:/usr/lib/x86_64-linux-gnu/dri/radeonsi_dri.so
   obj:/usr/lib/x86_64-linux-gnu/dri/radeonsi_dri.so
}
{
   3c822e0a4442360c4ee2effcac02a5f6
   Memcheck:Leak
   match-leak-kinds: reachable
   fun:_Znwm
   obj:/usr/lib/x86_64-linux-gnu/libLLVM-11.so.1
   fun:__pthread_once_slow
   fun:_ZN4llvm26initializeDeadCodeElimPassERNS_12PassRegistryE
   fun:_ZN5polly21initializePollyPassesERN4llvm12PassRegistryE
   obj:/usr/lib/x86_64-linux-gnu/libLLVM-11.so.1
   fun:call_init.part.0
   fun:call_init
   fun:_dl_init
   fun:_dl_catch_exception
   fun:dl_open_worker
   fun:_dl_catch_exception
   fun:_dl_open
}
{
   5bc7a67d257ac77bb690d6531773caef
   Memcheck:Leak
   match-leak-kinds: reachable
   fun:_Znwm
   obj:/usr/lib/x86_64-linux-gnu/libLLVM-11.so.1
   fun:__pthread_once_slow
   fun:_ZN4llvm24createFixIrreduciblePassEv
   obj:/usr/lib/x86_64-linux-gnu/libLLVM-11.so.1
   fun:_ZN4llvm16TargetPassConfig14addISelPrepareEv
   fun:_ZN4llvm16TargetPassConfig13addISelPassesEv
   fun:_ZN4llvm17LLVMTargetMachine19addPassesToEmitFileERNS_6legacy15PassManagerBaseERNS_17raw_pwrite_streamEPS4_NS_15CodeGenFileTypeEbPNS_28MachineModuleInfoWrapperPassE
   obj:/usr/lib/x86_64-linux-gnu/dri/radeonsi_dri.so
   obj:/usr/lib/x86_64-linux-gnu/dri/radeonsi_dri.so
   obj:/usr/lib/x86_64-linux-gnu/dri/radeonsi_dri.so
   obj:/usr/lib/x86_64-linux-gnu/dri/radeonsi_dri.so
}
{
   6ae53de1f97d94096c0d07ec7f0df83d
   Memcheck:Leak
   match-leak-kinds: reachable
   fun:_Znwm
   obj:/usr/lib/x86_64-linux-gnu/libLLVM-11.so.1
   fun:__pthread_once_slow
   obj:/usr/lib/x86_64-linux-gnu/libLLVM-11.so.1
   fun:LLVMInitializeAMDGPUTarget
   obj:/usr/lib/x86_64-linux-gnu/dri/radeonsi_dri.so
   fun:__pthread_once_slow
   obj:/usr/lib/x86_64-linux-gnu/dri/radeonsi_dri.so
   obj:/usr/lib/x86_64-linux-gnu/dri/radeonsi_dri.so
   obj:/usr/lib/x86_64-linux-gnu/dri/radeonsi_dri.so
   obj:/usr/lib/x86_64-linux-gnu/dri/radeonsi_dri.so
   fun:start_thread
}
{
   7567bd179ff9db3e180311ef8a382c65
   Memcheck:Leak
   match-leak-kinds: reachable
   fun:_Znwm
   obj:/usr/lib/x86_64-linux-gnu/libLLVM-11.so.1
   fun:_ZN4llvm12PassRegistry12registerPassERKNS_8PassInfoEb
   obj:/usr/lib/x86_64-linux-gnu/libLLVM-11.so.1
   fun:__pthread_once_slow
   fun:_ZN4llvm41initializeMemoryDependenceWrapperPassPassERNS_12PassRegistryE
   obj:/usr/lib/x86_64-linux-gnu/libLLVM-11.so.1
   fun:__pthread_once_slow
   obj:/usr/lib/x86_64-linux-gnu/libLLVM-11.so.1
   fun:LLVMInitializeAMDGPUTarget
   obj:/usr/lib/x86_64-linux-gnu/dri/radeonsi_dri.so
   fun:__pthread_once_slow
}
{
   df4950d05fe84d450b0dcf42597139df
   Memcheck:Leak
   match-leak-kinds: reachable
   fun:_Znwm
   obj:/usr/lib/x86_64-linux-gnu/libLLVM-11.so.1
   fun:__pthread_once_slow
   fun:_ZN4llvm25initializeIfConverterPassERNS_12PassRegistryE
   fun:_ZN4llvm17initializeCodeGenERNS_12PassRegistryE
   fun:_ZN4llvm16TargetPassConfigC1ERNS_17LLVMTargetMachineERNS_6legacy15PassManagerBaseE
   obj:/usr/lib/x86_64-linux-gnu/libLLVM-11.so.1
   fun:_ZN4llvm17LLVMTargetMachine19addPassesToEmitFileERNS_6legacy15PassManagerBaseERNS_17raw_pwrite_streamEPS4_NS_15CodeGenFileTypeEbPNS_28MachineModuleInfoWrapperPassE
   obj:/usr/lib/x86_64-linux-gnu/dri/radeonsi_dri.so
   obj:/usr/lib/x86_64-linux-gnu/dri/radeonsi_dri.so
   obj:/usr/lib/x86_64-linux-gnu/dri/radeonsi_dri.so
   obj:/usr/lib/x86_64-linux-gnu/dri/radeonsi_dri.so
}
{
   ccd64aecc8f3549d4caf90b7a25df275
   Memcheck:Leak
   match-leak-kinds: reachable
   fun:_Znwm
   obj:/usr/lib/x86_64-linux-gnu/libLLVM-11.so.1
   fun:_ZN4llvm12PassRegistry12registerPassERKNS_8PassInfoEb
   obj:/usr/lib/x86_64-linux-gnu/libLLVM-11.so.1
   fun:__pthread_once_slow
   fun:_ZN4llvm30initializeTargetPassConfigPassERNS_12PassRegistryE
   obj:/usr/lib/x86_64-linux-gnu/libLLVM-11.so.1
   fun:__pthread_once_slow
   fun:_ZN4llvm26initializeIRTranslatorPassERNS_12PassRegistryE
   fun:_ZN4llvm20initializeGlobalISelERNS_12PassRegistryE
   fun:LLVMInitializeAMDGPUTarget
   obj:/usr/lib/x86_64-linux-gnu/dri/radeonsi_dri.so
}
{
   a071fb3d7005e53c69a905acad7fa22f
   Memcheck:Leak
   match-leak-kinds: reachable
   fun:malloc
   fun:_dl_new_object
   fun:_dl_map_object_from_fd
   fun:_dl_map_object
   fun:dl_open_worker
   fun:_dl_catch_exception
   fun:_dl_open
   fun:dlopen_doit
   fun:_dl_catch_exception
   fun:_dl_catch_error
   fun:_dlerror_run
   fun:dlopen@@GLIBC_2.2.5
}
{
   64f45a3d6c0d56fbc3e03020c65e182c
   Memcheck:Leak
   match-leak-kinds: reachable
   fun:_Znwm
   obj:/usr/lib/x86_64-linux-gnu/libLLVM-11.so.1
   fun:_ZN4llvm12PassRegistry12registerPassERKNS_8PassInfoEb
   obj:/usr/lib/x86_64-linux-gnu/libLLVM-11.so.1
   fun:__pthread_once_slow
   fun:_ZN4llvm36initializeFinalizeMachineBundlesPassERNS_12PassRegistryE
   fun:_ZN4llvm17initializeCodeGenERNS_12PassRegistryE
   fun:_ZN4llvm16TargetPassConfigC1ERNS_17LLVMTargetMachineERNS_6legacy15PassManagerBaseE
   obj:/usr/lib/x86_64-linux-gnu/libLLVM-11.so.1
   fun:_ZN4llvm17LLVMTargetMachine19addPassesToEmitFileERNS_6legacy15PassManagerBaseERNS_17raw_pwrite_streamEPS4_NS_15CodeGenFileTypeEbPNS_28MachineModuleInfoWrapperPassE
   obj:/usr/lib/x86_64-linux-gnu/dri/radeonsi_dri.so
   obj:/usr/lib/x86_64-linux-gnu/dri/radeonsi_dri.so
}
{
   b7d3799fc4de8e73cb660bb222b8c667
   Memcheck:Leak
   match-leak-kinds: reachable
   fun:_Znwm
   obj:/usr/lib/x86_64-linux-gnu/libLLVM-11.so.1
   fun:_ZN4llvm12PassRegistry12registerPassERKNS_8PassInfoEb
   obj:/usr/lib/x86_64-linux-gnu/libLLVM-11.so.1
   fun:__pthread_once_slow
   fun:_ZN4llvm29createAlwaysInlinerLegacyPassEb
   fun:LLVMAddAlwaysInlinerPass
   obj:/usr/lib/x86_64-linux-gnu/dri/radeonsi_dri.so
   obj:/usr/lib/x86_64-linux-gnu/dri/radeonsi_dri.so
   obj:/usr/lib/x86_64-linux-gnu/dri/radeonsi_dri.so
   obj:/usr/lib/x86_64-linux-gnu/dri/radeonsi_dri.so
   obj:/usr/lib/x86_64-linux-gnu/dri/radeonsi_dri.so
}
{
   b0aee14596a7b900d7c0276afd49b448
   Memcheck:Leak
   match-leak-kinds: reachable
   fun:_Znwm
   obj:/usr/lib/x86_64-linux-gnu/libLLVM-11.so.1
   fun:__pthread_once_slow
   fun:_ZN4llvm20initializeDeLICMPassERNS_12PassRegistryE
   fun:_ZN5polly21initializePollyPassesERN4llvm12PassRegistryE
   obj:/usr/lib/x86_64-linux-gnu/libLLVM-11.so.1
   fun:call_init.part.0
   fun:call_init
   fun:_dl_init
   fun:_dl_catch_exception
   fun:dl_open_worker
   fun:_dl_catch_exception
   fun:_dl_open
}
{
   cc361182040bf2fa1e43ec9b03243610
   Memcheck:Leak
   match-leak-kinds: reachable
   fun:_Znwm
   obj:/usr/lib/x86_64-linux-gnu/libLLVM-11.so.1
   fun:__pthread_once_slow
   fun:_ZN4llvm31initializeEarlyIfPredicatorPassERNS_12PassRegistryE
   fun:_ZN4llvm17initializeCodeGenERNS_12PassRegistryE
   fun:_ZN4llvm16TargetPassConfigC1ERNS_17LLVMTargetMachineERNS_6legacy15PassManagerBaseE
   obj:/usr/lib/x86_64-linux-gnu/libLLVM-11.so.1
   fun:_ZN4llvm17LLVMTargetMachine19addPassesToEmitFileERNS_6legacy15PassManagerBaseERNS_17raw_pwrite_streamEPS4_NS_15CodeGenFileTypeEbPNS_28MachineModuleInfoWrapperPassE
   obj:/usr/lib/x86_64-linux-gnu/dri/radeonsi_dri.so
   obj:/usr/lib/x86_64-linux-gnu/dri/radeonsi_dri.so
   obj:/usr/lib/x86_64-linux-gnu/dri/radeonsi_dri.so
   obj:/usr/lib/x86_64-linux-gnu/dri/radeonsi_dri.so
}
{
   0951d0c4336c42ef7054faa94834f1c9
   Memcheck:Leak
   match-leak-kinds: reachable
   fun:_Znwm
   obj:/usr/lib/x86_64-linux-gnu/libLLVM-11.so.1
   fun:_ZN4llvm12PassRegistry12registerPassERKNS_8PassInfoEb
   obj:/usr/lib/x86_64-linux-gnu/libLLVM-11.so.1
   fun:__pthread_once_slow
   fun:_ZN4llvm24createUnifyLoopExitsPassEv
   obj:/usr/lib/x86_64-linux-gnu/libLLVM-11.so.1
   fun:_ZN4llvm16TargetPassConfig14addISelPrepareEv
   fun:_ZN4llvm16TargetPassConfig13addISelPassesEv
   fun:_ZN4llvm17LLVMTargetMachine19addPassesToEmitFileERNS_6legacy15PassManagerBaseERNS_17raw_pwrite_streamEPS4_NS_15CodeGenFileTypeEbPNS_28MachineModuleInfoWrapperPassE
   obj:/usr/lib/x86_64-linux-gnu/dri/radeonsi_dri.so
   obj:/usr/lib/x86_64-linux-gnu/dri/radeonsi_dri.so
}
{
   e819c15c5801c9f7ffbc94c4eb9b5ec6
   Memcheck:Leak
   match-leak-kinds: reachable
   fun:_Znwm
   obj:/usr/lib/x86_64-linux-gnu/libLLVM-11.so.1
   fun:_ZN4llvm12PassRegistry12registerPassERKNS_8PassInfoEb
   obj:/usr/lib/x86_64-linux-gnu/libLLVM-11.so.1
   fun:__pthread_once_slow
   obj:/usr/lib/x86_64-linux-gnu/libLLVM-11.so.1
   obj:/usr/lib/x86_64-linux-gnu/libLLVM-11.so.1
   fun:__pthread_once_slow
   obj:/usr/lib/x86_64-linux-gnu/libLLVM-11.so.1
   fun:LLVMInitializeAMDGPUTarget
   obj:/usr/lib/x86_64-linux-gnu/dri/radeonsi_dri.so
   fun:__pthread_once_slow
}
{
   7df96cea445b7d8e9a29b3e108d3cc13
   Memcheck:Leak
   match-leak-kinds: reachable
   fun:_Znwm
   obj:/usr/lib/x86_64-linux-gnu/libLLVM-11.so.1
   fun:_ZN4llvm12PassRegistry12registerPassERKNS_8PassInfoEb
   obj:/usr/lib/x86_64-linux-gnu/libLLVM-11.so.1
   fun:__pthread_once_slow
   fun:_ZN4llvm33initializeProcessImplicitDefsPassERNS_12PassRegistryE
   fun:_ZN4llvm17initializeCodeGenERNS_12PassRegistryE
   fun:_ZN4llvm16TargetPassConfigC1ERNS_17LLVMTargetMachineERNS_6legacy15PassManagerBaseE
   obj:/usr/lib/x86_64-linux-gnu/libLLVM-11.so.1
   fun:_ZN4llvm17LLVMTargetMachine19addPassesToEmitFileERNS_6legacy15PassManagerBaseERNS_17raw_pwrite_streamEPS4_NS_15CodeGenFileTypeEbPNS_28MachineModuleInfoWrapperPassE
   obj:/usr/lib/x86_64-linux-gnu/dri/radeonsi_dri.so
   obj:/usr/lib/x86_64-linux-gnu/dri/radeonsi_dri.so
}
{
   ab17f33c7daa7d03558274a052dba7be
   Memcheck:Leak
   match-leak-kinds: reachable
   fun:_Znwm
   obj:/usr/lib/x86_64-linux-gnu/libLLVM-11.so.1
   fun:__pthread_once_slow
   fun:_ZN4llvm27initializeRegBankSelectPassERNS_12PassRegistryE
   fun:_ZN4llvm20initializeGlobalISelERNS_12PassRegistryE
   fun:LLVMInitializeAMDGPUTarget
   obj:/usr/lib/x86_64-linux-gnu/dri/radeonsi_dri.so
   fun:__pthread_once_slow
   obj:/usr/lib/x86_64-linux-gnu/dri/radeonsi_dri.so
   obj:/usr/lib/x86_64-linux-gnu/dri/radeonsi_dri.so
   obj:/usr/lib/x86_64-linux-gnu/dri/radeonsi_dri.so
   obj:/usr/lib/x86_64-linux-gnu/dri/radeonsi_dri.so
}
{
   e6788feac9a9774d83a4ffe794fe2333
   Memcheck:Leak
   match-leak-kinds: reachable
   fun:_Znwm
   obj:/usr/lib/x86_64-linux-gnu/libLLVM-11.so.1
   fun:__pthread_once_slow
   fun:_ZN4llvm17initializePEIPassERNS_12PassRegistryE
   fun:_ZN4llvm17initializeCodeGenERNS_12PassRegistryE
   fun:_ZN4llvm16TargetPassConfigC1ERNS_17LLVMTargetMachineERNS_6legacy15PassManagerBaseE
   obj:/usr/lib/x86_64-linux-gnu/libLLVM-11.so.1
   fun:_ZN4llvm17LLVMTargetMachine19addPassesToEmitFileERNS_6legacy15PassManagerBaseERNS_17raw_pwrite_streamEPS4_NS_15CodeGenFileTypeEbPNS_28MachineModuleInfoWrapperPassE
   obj:/usr/lib/x86_64-linux-gnu/dri/radeonsi_dri.so
   obj:/usr/lib/x86_64-linux-gnu/dri/radeonsi_dri.so
   obj:/usr/lib/x86_64-linux-gnu/dri/radeonsi_dri.so
   obj:/usr/lib/x86_64-linux-gnu/dri/radeonsi_dri.so
}
{
   6622eb600aab7160b230d7c27c72f5e6
   Memcheck:Leak
   match-leak-kinds: reachable
   fun:_Znwm
   obj:/usr/lib/x86_64-linux-gnu/libLLVM-11.so.1
   fun:_ZN4llvm12PassRegistry12registerPassERKNS_8PassInfoEb
   obj:/usr/lib/x86_64-linux-gnu/libLLVM-11.so.1
   fun:__pthread_once_slow
   fun:_ZN4llvm33createPromoteMemoryToRegisterPassEv
   fun:LLVMAddPromoteMemoryToRegisterPass
   obj:/usr/lib/x86_64-linux-gnu/dri/radeonsi_dri.so
   obj:/usr/lib/x86_64-linux-gnu/dri/radeonsi_dri.so
   obj:/usr/lib/x86_64-linux-gnu/dri/radeonsi_dri.so
   obj:/usr/lib/x86_64-linux-gnu/dri/radeonsi_dri.so
   obj:/usr/lib/x86_64-linux-gnu/dri/radeonsi_dri.so
}
{
   6782457d7c54e3eb2ab683a8d0a93007
   Memcheck:Leak
   match-leak-kinds: reachable
   fun:realloc
   obj:/usr/lib/x86_64-linux-gnu/libX11.so.6.4.0
   obj:/usr/lib/x86_64-linux-gnu/libX11.so.6.4.0
   fun:_XlcCreateLC
   fun:_XlcUtf8Loader
   fun:_XOpenLC
   fun:XmbTextListToTextProperty
   fun:_ZN10QXcbWindow14setWindowTitleEPK14QXcbConnectionjRK7QString
   fun:_ZN14QXcbConnection19getQtSelectionOwnerEv
   obj:/usr/lib/x86_64-linux-gnu/libQt6XcbQpa.so.6.2.4
   fun:_ZN14QXcbConnection17initializeScreensEv
   fun:_ZN14QXcbConnectionC1EP19QXcbNativeInterfacebjPKc
}
{
   590f035d53d097c2f04d9c2f8cac582c
   Memcheck:Leak
   match-leak-kinds: reachable
   fun:_Znwm
   obj:/usr/lib/x86_64-linux-gnu/libLLVM-11.so.1
   fun:_ZN4llvm12PassRegistry12registerPassERKNS_8PassInfoEb
   obj:/usr/lib/x86_64-linux-gnu/libLLVM-11.so.1
   fun:__pthread_once_slow
   fun:_ZN4llvm30initializeEarlyIfConverterPassERNS_12PassRegistryE
   fun:_ZN4llvm17initializeCodeGenERNS_12PassRegistryE
   fun:_ZN4llvm16TargetPassConfigC1ERNS_17LLVMTargetMachineERNS_6legacy15PassManagerBaseE
   obj:/usr/lib/x86_64-linux-gnu/libLLVM-11.so.1
   fun:_ZN4llvm17LLVMTargetMachine19addPassesToEmitFileERNS_6legacy15PassManagerBaseERNS_17raw_pwrite_streamEPS4_NS_15CodeGenFileTypeEbPNS_28MachineModuleInfoWrapperPassE
   obj:/usr/lib/x86_64-linux-gnu/dri/radeonsi_dri.so
   obj:/usr/lib/x86_64-linux-gnu/dri/radeonsi_dri.so
}
{
   32b7bb4961cfbc7d8517d2904ff7e5ab
   Memcheck:Leak
   match-leak-kinds: reachable
   fun:_Znwm
   obj:/usr/lib/x86_64-linux-gnu/libLLVM-11.so.1
   fun:__pthread_once_slow
   fun:_ZN4llvm27initializeLiveIntervalsPassERNS_12PassRegistryE
   obj:/usr/lib/x86_64-linux-gnu/libLLVM-11.so.1
   fun:__pthread_once_slow
   obj:/usr/lib/x86_64-linux-gnu/libLLVM-11.so.1
   fun:LLVMInitializeAMDGPUTarget
   obj:/usr/lib/x86_64-linux-gnu/dri/radeonsi_dri.so
   fun:__pthread_once_slow
   obj:/usr/lib/x86_64-linux-gnu/dri/radeonsi_dri.so
   obj:/usr/lib/x86_64-linux-gnu/dri/radeonsi_dri.so
}
{
   57510780227a45882932e792a06b2c85
   Memcheck:Leak
   match-leak-kinds: reachable
   fun:_Znwm
   obj:/usr/lib/x86_64-linux-gnu/libLLVM-11.so.1
   fun:_ZN4llvm12PassRegistry12registerPassERKNS_8PassInfoEb
   obj:/usr/lib/x86_64-linux-gnu/libLLVM-11.so.1
   fun:__pthread_once_slow
   fun:_ZN4llvm34initializeAAResultsWrapperPassPassERNS_12PassRegistryE
   obj:/usr/lib/x86_64-linux-gnu/libLLVM-11.so.1
   fun:__pthread_once_slow
   fun:_ZN4llvm32initializeScopInfoRegionPassPassERNS_12PassRegistryE
   obj:/usr/lib/x86_64-linux-gnu/libLLVM-11.so.1
   fun:__pthread_once_slow
   fun:_ZN4llvm28initializeDependenceInfoPassERNS_12PassRegistryE
}
{
   d54d88d97c4678d9fe9000acb7eb5f70
   Memcheck:Leak
   match-leak-kinds: reachable
   fun:_Znwm
   obj:/usr/lib/x86_64-linux-gnu/libLLVM-11.so.1
   fun:__pthread_once_slow
   fun:_ZN4llvm25initializeScopInlinerPassERNS_12PassRegistryE
   fun:_ZN5polly21initializePollyPassesERN4llvm12PassRegistryE
   obj:/usr/lib/x86_64-linux-gnu/libLLVM-11.so.1
   fun:call_init.part.0
   fun:call_init
   fun:_dl_init
   fun:_dl_catch_exception
   fun:dl_open_worker
   fun:_dl_catch_exception
   fun:_dl_open
}
{
   208bbe2642e7d8e757af1387efe8d8ec
   Memcheck:Leak
   match-leak-kinds: reachable
   fun:_Znwm
   obj:/usr/lib/x86_64-linux-gnu/libLLVM-11.so.1
   fun:__pthread_once_slow
   fun:_ZN4llvm31initializePollyCanonicalizePassERNS_12PassRegistryE
   fun:_ZN5polly21initializePollyPassesERN4llvm12PassRegistryE
   obj:/usr/lib/x86_64-linux-gnu/libLLVM-11.so.1
   fun:call_init.part.0
   fun:call_init
   fun:_dl_init
   fun:_dl_catch_exception
   fun:dl_open_worker
   fun:_dl_catch_exception
   fun:_dl_open
}
{
   4132e4049bc8cc4b155882efa6371681
   Memcheck:Leak
   match-leak-kinds: reachable
   fun:_Znwm
   obj:/usr/lib/x86_64-linux-gnu/libLLVM-11.so.1
   fun:_ZN4llvm12PassRegistry12registerPassERKNS_8PassInfoEb
   obj:/usr/lib/x86_64-linux-gnu/libLLVM-11.so.1
   fun:__pthread_once_slow
   fun:_ZN4llvm21createLowerSwitchPassEv
   obj:/usr/lib/x86_64-linux-gnu/libLLVM-11.so.1
   fun:_ZN4llvm16TargetPassConfig13addISelPassesEv
   fun:_ZN4llvm17LLVMTargetMachine19addPassesToEmitFileERNS_6legacy15PassManagerBaseERNS_17raw_pwrite_streamEPS4_NS_15CodeGenFileTypeEbPNS_28MachineModuleInfoWrapperPassE
   obj:/usr/lib/x86_64-linux-gnu/dri/radeonsi_dri.so
   obj:/usr/lib/x86_64-linux-gnu/dri/radeonsi_dri.so
   obj:/usr/lib/x86_64-linux-gnu/dri/radeonsi_dri.so
}
{
   ebe07f8f1e38412b8f4810955000eb22
   Memcheck:Leak
   match-leak-kinds: reachable
   fun:_Znwm
   obj:/usr/lib/x86_64-linux-gnu/libLLVM-11.so.1
   fun:__pthread_once_slow
   fun:_ZN4llvm17createSinkingPassEv
   obj:/usr/lib/x86_64-linux-gnu/libLLVM-11.so.1
   fun:_ZN4llvm16TargetPassConfig14addISelPrepareEv
   fun:_ZN4llvm16TargetPassConfig13addISelPassesEv
   fun:_ZN4llvm17LLVMTargetMachine19addPassesToEmitFileERNS_6legacy15PassManagerBaseERNS_17raw_pwrite_streamEPS4_NS_15CodeGenFileTypeEbPNS_28MachineModuleInfoWrapperPassE
   obj:/usr/lib/x86_64-linux-gnu/dri/radeonsi_dri.so
   obj:/usr/lib/x86_64-linux-gnu/dri/radeonsi_dri.so
   obj:/usr/lib/x86_64-linux-gnu/dri/radeonsi_dri.so
   obj:/usr/lib/x86_64-linux-gnu/dri/radeonsi_dri.so
}
{
   a6833688f394767c56f1a39beb7364f5
   Memcheck:Leak
   match-leak-kinds: reachable
   fun:malloc
   fun:realloc
   fun:g_realloc
   obj:/usr/lib/x86_64-linux-gnu/libglib-2.0.so.0.6600.8
   fun:g_ptr_array_add
   fun:g_main_context_check
   obj:/usr/lib/x86_64-linux-gnu/libglib-2.0.so.0.6600.8
   fun:g_main_context_iteration
   fun:_ZN20QEventDispatcherGlib13processEventsE6QFlagsIN10QEventLoop17ProcessEventsFlagEE
   fun:_ZN10QEventLoop4execE6QFlagsINS_17ProcessEventsFlagEE
   fun:_ZN16QCoreApplication4execEv
   fun:main
}
{
   b4950072acb5181100bd8b1f361eaeb7
   Memcheck:Leak
   match-leak-kinds: reachable
   fun:_Znwm
   obj:/usr/lib/x86_64-linux-gnu/libLLVM-11.so.1
   fun:__pthread_once_slow
   fun:_ZN4llvm31createShadowStackGCLoweringPassEv
   fun:_ZN4llvm16TargetPassConfig11addIRPassesEv
   obj:/usr/lib/x86_64-linux-gnu/libLLVM-11.so.1
   fun:_ZN4llvm16TargetPassConfig13addISelPassesEv
   fun:_ZN4llvm17LLVMTargetMachine19addPassesToEmitFileERNS_6legacy15PassManagerBaseERNS_17raw_pwrite_streamEPS4_NS_15CodeGenFileTypeEbPNS_28MachineModuleInfoWrapperPassE
   obj:/usr/lib/x86_64-linux-gnu/dri/radeonsi_dri.so
   obj:/usr/lib/x86_64-linux-gnu/dri/radeonsi_dri.so
   obj:/usr/lib/x86_64-linux-gnu/dri/radeonsi_dri.so
   obj:/usr/lib/x86_64-linux-gnu/dri/radeonsi_dri.so
}
{
   3f8b0d6b552fdf1e3dc0ad53d4f71435
   Memcheck:Leak
   match-leak-kinds: reachable
   fun:_Znwm
   obj:/usr/lib/x86_64-linux-gnu/libLLVM-11.so.1
   fun:_ZN4llvm12PassRegistry12registerPassERKNS_8PassInfoEb
   obj:/usr/lib/x86_64-linux-gnu/libLLVM-11.so.1
   fun:__pthread_once_slow
   fun:_ZN4llvm46initializeBranchProbabilityInfoWrapperPassPassERNS_12PassRegistryE
   obj:/usr/lib/x86_64-linux-gnu/libLLVM-11.so.1
   fun:__pthread_once_slow
   fun:_ZN4llvm43initializeBlockFrequencyInfoWrapperPassPassERNS_12PassRegistryE
   obj:/usr/lib/x86_64-linux-gnu/libLLVM-11.so.1
   fun:__pthread_once_slow
   fun:_ZN4llvm26createConstantHoistingPassEv
}
{
   6f71ff3d32e49ed349ed00655e594873
   Memcheck:Leak
   match-leak-kinds: reachable
   fun:_Znwm
   obj:/usr/lib/x86_64-linux-gnu/libLLVM-11.so.1
   fun:_ZN4llvm12PassRegistry12registerPassERKNS_8PassInfoEb
   obj:/usr/lib/x86_64-linux-gnu/libLLVM-11.so.1
   fun:__pthread_once_slow
   fun:_ZN4llvm31initializePollyCanonicalizePassERNS_12PassRegistryE
   fun:_ZN5polly21initializePollyPassesERN4llvm12PassRegistryE
   obj:/usr/lib/x86_64-linux-gnu/libLLVM-11.so.1
   fun:call_init.part.0
   fun:call_init
   fun:_dl_init
   fun:_dl_catch_exception
   fun:dl_open_worker
}
{
   b0cce01098028d544d26c3c101766f8b
   Memcheck:Leak
   match-leak-kinds: reachable
   fun:calloc
   fun:_ZN4llvm13StringMapImpl11RehashTableEj
   obj:/usr/lib/x86_64-linux-gnu/libLLVM-11.so.1
   obj:/usr/lib/x86_64-linux-gnu/libLLVM-11.so.1
   fun:_ZN4llvm2cl6Option11addArgumentEv
   obj:/usr/lib/x86_64-linux-gnu/libLLVM-11.so.1
   fun:call_init.part.0
   fun:call_init
   fun:_dl_init
   fun:_dl_catch_exception
   fun:dl_open_worker
   fun:_dl_catch_exception
   fun:_dl_open
}
{
   d013fbd3ace44b351552153363831461
   Memcheck:Leak
   match-leak-kinds: reachable
   fun:malloc
   fun:UDataMemory_createNewInstance_67
   obj:/usr/lib/x86_64-linux-gnu/libicuuc.so.67.1
   obj:/usr/lib/x86_64-linux-gnu/libicuuc.so.67.1
   fun:res_load_67
   obj:/usr/lib/x86_64-linux-gnu/libicuuc.so.67.1
   obj:/usr/lib/x86_64-linux-gnu/libicuuc.so.67.1
   obj:/usr/lib/x86_64-linux-gnu/libicuuc.so.67.1
   fun:_ZN6icu_6715CollationLoader14loadFromLocaleER10UErrorCode
   fun:_ZNK6icu_6712UnifiedCache4_getERKNS_12CacheKeyBaseERPKNS_12SharedObjectEPKvR10UErrorCode
   fun:_ZN6icu_6715CollationLoader13getCacheEntryER10UErrorCode
   fun:_ZN6icu_6715CollationLoader13loadTailoringERKNS_6LocaleER10UErrorCode
}
{
   4b697fbe7f3d4195ded53de10de6139b
   Memcheck:Leak
   match-leak-kinds: reachable
   fun:_Znwm
   obj:/usr/lib/x86_64-linux-gnu/libLLVM-11.so.1
   fun:__pthread_once_slow
   fun:_ZN4llvm29initializePostRASchedulerPassERNS_12PassRegistryE
   fun:_ZN4llvm17initializeCodeGenERNS_12PassRegistryE
   fun:_ZN4llvm16TargetPassConfigC1ERNS_17LLVMTargetMachineERNS_6legacy15PassManagerBaseE
   obj:/usr/lib/x86_64-linux-gnu/libLLVM-11.so.1
   fun:_ZN4llvm17LLVMTargetMachine19addPassesToEmitFileERNS_6legacy15PassManagerBaseERNS_17raw_pwrite_streamEPS4_NS_15CodeGenFileTypeEbPNS_28MachineModuleInfoWrapperPassE
   obj:/usr/lib/x86_64-linux-gnu/dri/radeonsi_dri.so
   obj:/usr/lib/x86_64-linux-gnu/dri/radeonsi_dri.so
   obj:/usr/lib/x86_64-linux-gnu/dri/radeonsi_dri.so
   obj:/usr/lib/x86_64-linux-gnu/dri/radeonsi_dri.so
}
{
   36c9b8631333a27705de3be908be7a2c
   Memcheck:Leak
   match-leak-kinds: reachable
   fun:_Znwm
   obj:/usr/lib/x86_64-linux-gnu/libLLVM-11.so.1
   fun:__pthread_once_slow
   fun:_ZN4llvm33initializeSafeStackLegacyPassPassERNS_12PassRegistryE
   fun:_ZN4llvm17initializeCodeGenERNS_12PassRegistryE
   fun:_ZN4llvm16TargetPassConfigC1ERNS_17LLVMTargetMachineERNS_6legacy15PassManagerBaseE
   obj:/usr/lib/x86_64-linux-gnu/libLLVM-11.so.1
   fun:_ZN4llvm17LLVMTargetMachine19addPassesToEmitFileERNS_6legacy15PassManagerBaseERNS_17raw_pwrite_streamEPS4_NS_15CodeGenFileTypeEbPNS_28MachineModuleInfoWrapperPassE
   obj:/usr/lib/x86_64-linux-gnu/dri/radeonsi_dri.so
   obj:/usr/lib/x86_64-linux-gnu/dri/radeonsi_dri.so
   obj:/usr/lib/x86_64-linux-gnu/dri/radeonsi_dri.so
   obj:/usr/lib/x86_64-linux-gnu/dri/radeonsi_dri.so
}
{
   8ca9dc308e502986d9ca9c2fb5ad7e32
   Memcheck:Leak
   match-leak-kinds: indirect
   fun:_Znwm
   fun:_ZN4QDirC1ERK7QString
   fun:_ZN6Window14button2clickedEv
   fun:_ZN6Window18qt_static_metacallEP7QObjectN11QMetaObject4CallEiPPv
   obj:/usr/lib/x86_64-linux-gnu/libQt6Core.so.6.2.4
   fun:_ZN15QAbstractButton7clickedEb
   obj:/usr/lib/x86_64-linux-gnu/libQt6Widgets.so.6.2.4
   obj:/usr/lib/x86_64-linux-gnu/libQt6Widgets.so.6.2.4
   fun:_ZN15QAbstractButton17mouseReleaseEventEP11QMouseEvent
   fun:_ZN7QWidget5eventEP6QEvent
   fun:_ZN19QApplicationPrivate13notify_helperEP7QObjectP6QEvent
   fun:_ZN12QApplication6notifyEP7QObjectP6QEvent
}
{
   7670dcf9037a104aab29b9ed64411ba6
   Memcheck:Leak
   match-leak-kinds: reachable
   fun:_Znwm
   obj:/usr/lib/x86_64-linux-gnu/libLLVM-11.so.1
   fun:__pthread_once_slow
   fun:_ZN4llvm39initializeTwoAddressInstructionPassPassERNS_12PassRegistryE
   fun:_ZN4llvm17initializeCodeGenERNS_12PassRegistryE
   fun:_ZN4llvm16TargetPassConfigC1ERNS_17LLVMTargetMachineERNS_6legacy15PassManagerBaseE
   obj:/usr/lib/x86_64-linux-gnu/libLLVM-11.so.1
   fun:_ZN4llvm17LLVMTargetMachine19addPassesToEmitFileERNS_6legacy15PassManagerBaseERNS_17raw_pwrite_streamEPS4_NS_15CodeGenFileTypeEbPNS_28MachineModuleInfoWrapperPassE
   obj:/usr/lib/x86_64-linux-gnu/dri/radeonsi_dri.so
   obj:/usr/lib/x86_64-linux-gnu/dri/radeonsi_dri.so
   obj:/usr/lib/x86_64-linux-gnu/dri/radeonsi_dri.so
   obj:/usr/lib/x86_64-linux-gnu/dri/radeonsi_dri.so
}
{
   af99caef3085b9efc3d4b16e33a59912
   Memcheck:Leak
   match-leak-kinds: reachable
   fun:malloc
   fun:_ZN6icu_677UMemorynwEm
   fun:_ZN6icu_6712UnifiedCacheC1ER10UErrorCode
   fun:_ZN6icu_6712UnifiedCache11getInstanceER10UErrorCode
   fun:_ZN6icu_6715CollationLoaderC1EPKNS_19CollationCacheEntryERKNS_6LocaleER10UErrorCode
   fun:_ZN6icu_6715CollationLoader13loadTailoringERKNS_6LocaleER10UErrorCode
   fun:_ZN6icu_678Collator12makeInstanceERKNS_6LocaleER10UErrorCode
   fun:_ZN6icu_678Collator14createInstanceERKNS_6LocaleER10UErrorCode
   fun:ucol_open_67
   obj:/usr/lib/x86_64-linux-gnu/libQt6Core.so.6.2.4
   fun:_ZN23QFileSystemModelPrivate12sortChildrenEiRK11QModelIndex
   fun:_ZN16QFileSystemModel4sortEiN2Qt9SortOrderE
}
{
   5be6ad0f7ee2db303bb8f96212cf3aa9
   Memcheck:Leak
   match-leak-kinds: reachable
   fun:_Znwm
   obj:/usr/lib/x86_64-linux-gnu/libLLVM-11.so.1
   fun:__pthread_once_slow
   fun:_ZN4llvm35initializeIslAstInfoWrapperPassPassERNS_12PassRegistryE
   fun:_ZN5polly21initializePollyPassesERN4llvm12PassRegistryE
   obj:/usr/lib/x86_64-linux-gnu/libLLVM-11.so.1
   fun:call_init.part.0
   fun:call_init
   fun:_dl_init
   fun:_dl_catch_exception
   fun:dl_open_worker
   fun:_dl_catch_exception
   fun:_dl_open
}
{
   3c0113f2c51cd31bccac6d0625ce2163
   Memcheck:Leak
   match-leak-kinds: reachable
   fun:_Znwm
   obj:/usr/lib/x86_64-linux-gnu/libLLVM-11.so.1
   fun:_ZN4llvm12PassRegistry12registerPassERKNS_8PassInfoEb
   obj:/usr/lib/x86_64-linux-gnu/libLLVM-11.so.1
   fun:__pthread_once_slow
   fun:_ZN4llvm38initializeScopDetectionWrapperPassPassERNS_12PassRegistryE
   obj:/usr/lib/x86_64-linux-gnu/libLLVM-11.so.1
   fun:__pthread_once_slow
   fun:_ZN4llvm32initializeScopInfoRegionPassPassERNS_12PassRegistryE
   obj:/usr/lib/x86_64-linux-gnu/libLLVM-11.so.1
   fun:__pthread_once_slow
   fun:_ZN4llvm28initializeDependenceInfoPassERNS_12PassRegistryE
}
{
   de66f0ddcc1fb5ef21ee00013808068a
   Memcheck:Leak
   match-leak-kinds: reachable
   fun:_Znwm
   obj:/usr/lib/x86_64-linux-gnu/libLLVM-11.so.1
   fun:__pthread_once_slow
   fun:_ZN4llvm28initializePHIEliminationPassERNS_12PassRegistryE
   fun:_ZN4llvm17initializeCodeGenERNS_12PassRegistryE
   fun:_ZN4llvm16TargetPassConfigC1ERNS_17LLVMTargetMachineERNS_6legacy15PassManagerBaseE
   obj:/usr/lib/x86_64-linux-gnu/libLLVM-11.so.1
   fun:_ZN4llvm17LLVMTargetMachine19addPassesToEmitFileERNS_6legacy15PassManagerBaseERNS_17raw_pwrite_streamEPS4_NS_15CodeGenFileTypeEbPNS_28MachineModuleInfoWrapperPassE
   obj:/usr/lib/x86_64-linux-gnu/dri/radeonsi_dri.so
   obj:/usr/lib/x86_64-linux-gnu/dri/radeonsi_dri.so
   obj:/usr/lib/x86_64-linux-gnu/dri/radeonsi_dri.so
   obj:/usr/lib/x86_64-linux-gnu/dri/radeonsi_dri.so
}
{
   dd96cdf049733f395024ac191cbcbe1d
   Memcheck:Leak
   match-leak-kinds: reachable
   fun:realloc
   obj:/usr/lib/x86_64-linux-gnu/libdbus-1.so.3.19.13
   fun:_dbus_string_copy_len
   obj:/usr/lib/x86_64-linux-gnu/libdbus-1.so.3.19.13
   obj:/usr/lib/x86_64-linux-gnu/libdbus-1.so.3.19.13
   fun:_dbus_type_writer_write_basic
   fun:dbus_message_iter_append_basic
   fun:dbus_message_new_error
   obj:/usr/lib/x86_64-linux-gnu/libdbus-1.so.3.19.13
   fun:dbus_connection_send_with_reply
   fun:dbus_connection_send_with_reply_and_block
   fun:dbus_bus_register
}
{
   9b2afab1adc0ad9e4f4fc9c0f8c84969
   Memcheck:Leak
   match-leak-kinds: reachable
   fun:_Znwm
   obj:/usr/lib/x86_64-linux-gnu/libLLVM-11.so.1
   fun:__pthread_once_slow
   fun:_ZN4llvm29initializeLiveRangeShrinkPassERNS_12PassRegistryE
   fun:_ZN4llvm17initializeCodeGenERNS_12PassRegistryE
   fun:_ZN4llvm16TargetPassConfigC1ERNS_17LLVMTargetMachineERNS_6legacy15PassManagerBaseE
   obj:/usr/lib/x86_64-linux-gnu/libLLVM-11.so.1
   fun:_ZN4llvm17LLVMTargetMachine19addPassesToEmitFileERNS_6legacy15PassManagerBaseERNS_17raw_pwrite_streamEPS4_NS_15CodeGenFileTypeEbPNS_28MachineModuleInfoWrapperPassE
   obj:/usr/lib/x86_64-linux-gnu/dri/radeonsi_dri.so
   obj:/usr/lib/x86_64-linux-gnu/dri/radeonsi_dri.so
   obj:/usr/lib/x86_64-linux-gnu/dri/radeonsi_dri.so
   obj:/usr/lib/x86_64-linux-gnu/dri/radeonsi_dri.so
}
{
   0f20ccc946f2ad3e2050b75b21af36c9
   Memcheck:Leak
   match-leak-kinds: reachable
   fun:_Znwm
   obj:/usr/lib/x86_64-linux-gnu/libLLVM-11.so.1
   fun:_ZN4llvm12PassRegistry12registerPassERKNS_8PassInfoEb
   obj:/usr/lib/x86_64-linux-gnu/libLLVM-11.so.1
   fun:__pthread_once_slow
   fun:_ZN4llvm24initializeShrinkWrapPassERNS_12PassRegistryE
   fun:_ZN4llvm17initializeCodeGenERNS_12PassRegistryE
   fun:_ZN4llvm16TargetPassConfigC1ERNS_17LLVMTargetMachineERNS_6legacy15PassManagerBaseE
   obj:/usr/lib/x86_64-linux-gnu/libLLVM-11.so.1
   fun:_ZN4llvm17LLVMTargetMachine19addPassesToEmitFileERNS_6legacy15PassManagerBaseERNS_17raw_pwrite_streamEPS4_NS_15CodeGenFileTypeEbPNS_28MachineModuleInfoWrapperPassE
   obj:/usr/lib/x86_64-linux-gnu/dri/radeonsi_dri.so
   obj:/usr/lib/x86_64-linux-gnu/dri/radeonsi_dri.so
}
{
   edb2741a4249c38abec01b453f6172c4
   Memcheck:Leak
   match-leak-kinds: reachable
   fun:malloc
   fun:_dbus_register_shutdown_func
   fun:dbus_message_unref
   obj:/usr/lib/x86_64-linux-gnu/libdbus-1.so.3.19.13
   fun:dbus_connection_send_with_reply_and_block
   fun:dbus_bus_register
   obj:/usr/lib/x86_64-linux-gnu/libdbus-1.so.3.19.13
   obj:/usr/lib/x86_64-linux-gnu/libQt6DBus.so.6.2.4
   fun:_ZN7QObject5eventEP6QEvent
   fun:_ZN16QCoreApplication15notifyInternal2EP7QObjectP6QEvent
   fun:_ZN23QCoreApplicationPrivate16sendPostedEventsEP7QObjectiP11QThreadData
   obj:/usr/lib/x86_64-linux-gnu/libQt6Core.so.6.2.4
}
{
   19c6632cbec79eabf2026e4013ad2784
   Memcheck:Leak
   match-leak-kinds: reachable
   fun:_Znwm
   obj:/usr/lib/x86_64-linux-gnu/libLLVM-11.so.1
   fun:_ZN4llvm12PassRegistry12registerPassERKNS_8PassInfoEb
   obj:/usr/lib/x86_64-linux-gnu/libLLVM-11.so.1
   fun:__pthread_once_slow
   fun:_ZN4llvm34initializeMemorySSAWrapperPassPassERNS_12PassRegistryE
   obj:/usr/lib/x86_64-linux-gnu/libLLVM-11.so.1
   fun:__pthread_once_slow
   fun:_ZN4llvm14createLICMPassEv
   fun:LLVMAddLICMPass
   obj:/usr/lib/x86_64-linux-gnu/dri/radeonsi_dri.so
   obj:/usr/lib/x86_64-linux-gnu/dri/radeonsi_dri.so
}
{
   e51a594b91897563e12a2618ee272f7a
   Memcheck:Leak
   match-leak-kinds: reachable
   fun:_Znwm
   obj:/usr/lib/x86_64-linux-gnu/libLLVM-11.so.1
   fun:__pthread_once_slow
   fun:_ZN4llvm28initializeMachineSinkingPassERNS_12PassRegistryE
   fun:_ZN4llvm17initializeCodeGenERNS_12PassRegistryE
   fun:_ZN4llvm16TargetPassConfigC1ERNS_17LLVMTargetMachineERNS_6legacy15PassManagerBaseE
   obj:/usr/lib/x86_64-linux-gnu/libLLVM-11.so.1
   fun:_ZN4llvm17LLVMTargetMachine19addPassesToEmitFileERNS_6legacy15PassManagerBaseERNS_17raw_pwrite_streamEPS4_NS_15CodeGenFileTypeEbPNS_28MachineModuleInfoWrapperPassE
   obj:/usr/lib/x86_64-linux-gnu/dri/radeonsi_dri.so
   obj:/usr/lib/x86_64-linux-gnu/dri/radeonsi_dri.so
   obj:/usr/lib/x86_64-linux-gnu/dri/radeonsi_dri.so
   obj:/usr/lib/x86_64-linux-gnu/dri/radeonsi_dri.so
}
{
   1696bb245141bc2306480da01da3152b
   Memcheck:Leak
   match-leak-kinds: reachable
   fun:_Znwm
   obj:/usr/lib/x86_64-linux-gnu/libLLVM-11.so.1
   fun:__pthread_once_slow
   fun:_ZN4llvm28initializeCodegenCleanupPassERNS_12PassRegistryE
   fun:_ZN5polly21initializePollyPassesERN4llvm12PassRegistryE
   obj:/usr/lib/x86_64-linux-gnu/libLLVM-11.so.1
   fun:call_init.part.0
   fun:call_init
   fun:_dl_init
   fun:_dl_catch_exception
   fun:dl_open_worker
   fun:_dl_catch_exception
   fun:_dl_open
}
{
   f1e14e3a1b8af3f21b632b72a1fa49af
   Memcheck:Leak
   match-leak-kinds: reachable
   fun:realloc
   obj:/usr/lib/x86_64-linux-gnu/libX11.so.6.4.0
   obj:/usr/lib/x86_64-linux-gnu/libX11.so.6.4.0
   fun:XrmGetStringDatabase
   obj:/usr/lib/x86_64-linux-gnu/libX11.so.6.4.0
   fun:XGetDefault
   fun:_XcursorGetDisplayInfo
   fun:XcursorGetDefaultSize
   fun:XcursorLibraryLoadCursor
   obj:/usr/lib/x86_64-linux-gnu/libQt6XcbQpa.so.6.2.4
   obj:/usr/lib/x86_64-linux-gnu/libQt6XcbQpa.so.6.2.4
   obj:/usr/lib/x86_64-linux-gnu/libQt6XcbQpa.so.6.2.4
}
{
   62e5170edb2daecbb02d0ccba45f6848
   Memcheck:Leak
   match-leak-kinds: reachable
   fun:realloc
   obj:/usr/lib/x86_64-linux-gnu/libdbus-1.so.3.19.13
   obj:/usr/lib/x86_64-linux-gnu/libdbus-1.so.3.19.13
   obj:/usr/lib/x86_64-linux-gnu/libdbus-1.so.3.19.13
   fun:_dbus_type_writer_recurse
   obj:/usr/lib/x86_64-linux-gnu/libdbus-1.so.3.19.13
   fun:_dbus_header_set_field_basic
   obj:/usr/lib/x86_64-linux-gnu/libdbus-1.so.3.19.13
   fun:dbus_message_iter_append_basic
   obj:/usr/lib/x86_64-linux-gnu/libQt6DBus.so.6.2.4
   obj:/usr/lib/x86_64-linux-gnu/libQt6DBus.so.6.2.4
   obj:/usr/lib/x86_64-linux-gnu/libQt6DBus.so.6.2.4
}
{
   ac3056e30eb69a165d575fbcb83a6db2
   Memcheck:Leak
   match-leak-kinds: reachable
   fun:_Znwm
   obj:/usr/lib/x86_64-linux-gnu/libLLVM-11.so.1
   fun:_ZNK4llvm17ManagedStaticBase21RegisterManagedStaticEPFPvvEPFvS1_E
   obj:/usr/lib/x86_64-linux-gnu/libLLVM-11.so.1
   obj:/usr/lib/x86_64-linux-gnu/libLLVM-11.so.1
   fun:_ZNK4llvm17ManagedStaticBase21RegisterManagedStaticEPFPvvEPFvS1_E
   fun:_ZN4llvm2cl14OptionCategory16registerCategoryEv
   obj:/usr/lib/x86_64-linux-gnu/libLLVM-11.so.1
   fun:call_init.part.0
   fun:call_init
   fun:_dl_init
   fun:_dl_catch_exception
   fun:dl_open_worker
}
{
   0f9ca80944ab24fcecd3a7c7f21d628b
   Memcheck:Leak
   match-leak-kinds: reachable
   fun:_Znwm
   obj:/usr/lib/x86_64-linux-gnu/libLLVM-11.so.1
   fun:_ZN4llvm12PassRegistry12registerPassERKNS_8PassInfoEb
   obj:/usr/lib/x86_64-linux-gnu/libLLVM-11.so.1
   fun:__pthread_once_slow
   fun:_ZN4llvm42initializeDominanceFrontierWrapperPassPassERNS_12PassRegistryE
   obj:/usr/lib/x86_64-linux-gnu/libLLVM-11.so.1
   fun:__pthread_once_slow
   fun:_ZN4llvm28initializeRegionInfoPassPassERNS_12PassRegistryE
   obj:/usr/lib/x86_64-linux-gnu/libLLVM-11.so.1
   fun:__pthread_once_slow
   fun:_ZN4llvm32initializeScopInfoRegionPassPassERNS_12PassRegistryE
}
{
   cb100d11c2c8dc8ba298e7b045025f25
   Memcheck:Leak
   match-leak-kinds: reachable
   fun:malloc
   fun:g_malloc
   fun:g_slice_alloc
   fun:g_slist_append
   fun:g_main_context_new
   fun:g_main_context_default
   fun:g_main_context_push_thread_default
   fun:_ZN27QEventDispatcherGlibPrivateC1EP13_GMainContext
   fun:_ZN20QEventDispatcherGlibC1EP7QObject
   obj:/usr/lib/x86_64-linux-gnu/libQt6Core.so.6.2.4
   obj:/usr/lib/x86_64-linux-gnu/libQt6Core.so.6.2.4
   obj:/usr/lib/x86_64-linux-gnu/libQt6Core.so.6.2.4
}
{
   57ddd42a9575dcad630c6e3c85f1069f
   Memcheck:Leak
   match-leak-kinds: reachable
   fun:_Znwm
   obj:/usr/lib/x86_64-linux-gnu/libLLVM-11.so.1
   fun:_ZN4llvm12PassRegistry12registerPassERKNS_8PassInfoEb
   obj:/usr/lib/x86_64-linux-gnu/libLLVM-11.so.1
   fun:__pthread_once_slow
   fun:_ZN4llvm33initializeSafeStackLegacyPassPassERNS_12PassRegistryE
   fun:_ZN4llvm17initializeCodeGenERNS_12PassRegistryE
   fun:_ZN4llvm16TargetPassConfigC1ERNS_17LLVMTargetMachineERNS_6legacy15PassManagerBaseE
   obj:/usr/lib/x86_64-linux-gnu/libLLVM-11.so.1
   fun:_ZN4llvm17LLVMTargetMachine19addPassesToEmitFileERNS_6legacy15PassManagerBaseERNS_17raw_pwrite_streamEPS4_NS_15CodeGenFileTypeEbPNS_28MachineModuleInfoWrapperPassE
   obj:/usr/lib/x86_64-linux-gnu/dri/radeonsi_dri.so
   obj:/usr/lib/x86_64-linux-gnu/dri/radeonsi_dri.so
}
{
   0dfd03cafcc7d326c9c436ececf66f09
   Memcheck:Leak
   match-leak-kinds: reachable
   fun:_Znwm
   obj:/usr/lib/x86_64-linux-gnu/libLLVM-11.so.1
   fun:__pthread_once_slow
   fun:_ZN4llvm40initializeScopedNoAliasAAWrapperPassPassERNS_12PassRegistryE
   obj:/usr/lib/x86_64-linux-gnu/libLLVM-11.so.1
   fun:__pthread_once_slow
   fun:_ZN4llvm34initializeAAResultsWrapperPassPassERNS_12PassRegistryE
   obj:/usr/lib/x86_64-linux-gnu/libLLVM-11.so.1
   fun:__pthread_once_slow
   fun:_ZN4llvm32initializeScopInfoRegionPassPassERNS_12PassRegistryE
   obj:/usr/lib/x86_64-linux-gnu/libLLVM-11.so.1
   fun:__pthread_once_slow
}
{
   242c9f0fc65650083cd2437a548e3df8
   Memcheck:Leak
   match-leak-kinds: reachable
   fun:_Znwm
   obj:/usr/lib/x86_64-linux-gnu/libLLVM-11.so.1
   fun:__pthread_once_slow
   fun:_ZN4llvm41initializeGISelCSEAnalysisWrapperPassPassERNS_12PassRegistryE
   obj:/usr/lib/x86_64-linux-gnu/libLLVM-11.so.1
   fun:__pthread_once_slow
   fun:_ZN4llvm26initializeIRTranslatorPassERNS_12PassRegistryE
   fun:_ZN4llvm20initializeGlobalISelERNS_12PassRegistryE
   fun:LLVMInitializeAMDGPUTarget
   obj:/usr/lib/x86_64-linux-gnu/dri/radeonsi_dri.so
   fun:__pthread_once_slow
   obj:/usr/lib/x86_64-linux-gnu/dri/radeonsi_dri.so
}
{
   f46a8a54aad1b81c83136c8b50aa9a8f
   Memcheck:Leak
   match-leak-kinds: reachable
   fun:_Znwm
   obj:/usr/lib/x86_64-linux-gnu/libLLVM-11.so.1
   fun:_ZN4llvm12PassRegistry12registerPassERKNS_8PassInfoEb
   obj:/usr/lib/x86_64-linux-gnu/libLLVM-11.so.1
   fun:__pthread_once_slow
   fun:_ZN4llvm28createLoopStrengthReducePassEv
   fun:_ZN4llvm16TargetPassConfig11addIRPassesEv
   obj:/usr/lib/x86_64-linux-gnu/libLLVM-11.so.1
   fun:_ZN4llvm16TargetPassConfig13addISelPassesEv
   fun:_ZN4llvm17LLVMTargetMachine19addPassesToEmitFileERNS_6legacy15PassManagerBaseERNS_17raw_pwrite_streamEPS4_NS_15CodeGenFileTypeEbPNS_28MachineModuleInfoWrapperPassE
   obj:/usr/lib/x86_64-linux-gnu/dri/radeonsi_dri.so
   obj:/usr/lib/x86_64-linux-gnu/dri/radeonsi_dri.so
}
{
   258ec93c826023686659b2e310217926
   Memcheck:Leak
   match-leak-kinds: reachable
   fun:_Znwm
   obj:/usr/lib/x86_64-linux-gnu/libLLVM-11.so.1
   fun:_ZN4llvm12PassRegistry12registerPassERKNS_8PassInfoEb
   obj:/usr/lib/x86_64-linux-gnu/libLLVM-11.so.1
   fun:__pthread_once_slow
   fun:_ZN4llvm34initializeObjCARCAAWrapperPassPassERNS_12PassRegistryE
   obj:/usr/lib/x86_64-linux-gnu/libLLVM-11.so.1
   fun:__pthread_once_slow
   fun:_ZN4llvm34initializeAAResultsWrapperPassPassERNS_12PassRegistryE
   obj:/usr/lib/x86_64-linux-gnu/libLLVM-11.so.1
   fun:__pthread_once_slow
   fun:_ZN4llvm32initializeScopInfoRegionPassPassERNS_12PassRegistryE
}
{
   ad4b8b24364b7b5c234e725aabd7a3d2
   Memcheck:Leak
   match-leak-kinds: reachable
   fun:malloc
   fun:_XlcAddLoader
   fun:_XOpenLC
   fun:XmbTextListToTextProperty
   fun:_ZN10QXcbWindow14setWindowTitleEPK14QXcbConnectionjRK7QString
   fun:_ZN14QXcbConnection19getQtSelectionOwnerEv
   obj:/usr/lib/x86_64-linux-gnu/libQt6XcbQpa.so.6.2.4
   fun:_ZN14QXcbConnection17initializeScreensEv
   fun:_ZN14QXcbConnectionC1EP19QXcbNativeInterfacebjPKc
   fun:_ZN15QXcbIntegrationC1ERK5QListI7QStringERiPPc
   obj:/usr/lib/x86_64-linux-gnu/qt6/plugins/platforms/libqxcb.so
   fun:_ZN27QPlatformIntegrationFactory6createERK7QStringRK5QListIS0_ERiPPcS2_
}
{
   b4c954fc91298ff1ec4e21411bc11425
   Memcheck:Leak
   match-leak-kinds: reachable
   fun:_Znwm
   obj:/usr/lib/x86_64-linux-gnu/libLLVM-11.so.1
   fun:_ZN4llvm12PassRegistry12registerPassERKNS_8PassInfoEb
   obj:/usr/lib/x86_64-linux-gnu/libLLVM-11.so.1
   fun:__pthread_once_slow
   fun:_ZN4llvm28initializeStackProtectorPassERNS_12PassRegistryE
   fun:_ZN4llvm17initializeCodeGenERNS_12PassRegistryE
   fun:_ZN4llvm16TargetPassConfigC1ERNS_17LLVMTargetMachineERNS_6legacy15PassManagerBaseE
   obj:/usr/lib/x86_64-linux-gnu/libLLVM-11.so.1
   fun:_ZN4llvm17LLVMTargetMachine19addPassesToEmitFileERNS_6legacy15PassManagerBaseERNS_17raw_pwrite_streamEPS4_NS_15CodeGenFileTypeEbPNS_28MachineModuleInfoWrapperPassE
   obj:/usr/lib/x86_64-linux-gnu/dri/radeonsi_dri.so
   obj:/usr/lib/x86_64-linux-gnu/dri/radeonsi_dri.so
}
{
   91062956a0430772dffdba4329ef0fa5
   Memcheck:Leak
   match-leak-kinds: reachable
   fun:_Znwm
   obj:/usr/lib/x86_64-linux-gnu/libLLVM-11.so.1
   fun:_ZN4llvm12PassRegistry12registerPassERKNS_8PassInfoEb
   obj:/usr/lib/x86_64-linux-gnu/libLLVM-11.so.1
   fun:__pthread_once_slow
   fun:_ZN4llvm35initializeDebugifyMachineModulePassERNS_12PassRegistryE
   fun:_ZN4llvm17initializeCodeGenERNS_12PassRegistryE
   fun:_ZN4llvm16TargetPassConfigC1ERNS_17LLVMTargetMachineERNS_6legacy15PassManagerBaseE
   obj:/usr/lib/x86_64-linux-gnu/libLLVM-11.so.1
   fun:_ZN4llvm17LLVMTargetMachine19addPassesToEmitFileERNS_6legacy15PassManagerBaseERNS_17raw_pwrite_streamEPS4_NS_15CodeGenFileTypeEbPNS_28MachineModuleInfoWrapperPassE
   obj:/usr/lib/x86_64-linux-gnu/dri/radeonsi_dri.so
   obj:/usr/lib/x86_64-linux-gnu/dri/radeonsi_dri.so
}
{
   b8aa0eb43c4103c3bdb1004b0f1dc6aa
   Memcheck:Leak
   match-leak-kinds: reachable
   fun:malloc
   fun:_ZN6icu_677UMemorynaEm
   obj:/usr/lib/x86_64-linux-gnu/libicuuc.so.67.1
   fun:_ZN6icu_676Locale14getLocaleCacheEv
   fun:_ZN6icu_676Locale9getLocaleEi
   fun:_ZN6icu_6713CollationRoot4loadER10UErrorCode
   fun:_ZN6icu_6713CollationRoot17getRootCacheEntryER10UErrorCode
   fun:_ZN6icu_6715CollationLoader13loadTailoringERKNS_6LocaleER10UErrorCode
   fun:_ZN6icu_678Collator12makeInstanceERKNS_6LocaleER10UErrorCode
   fun:_ZN6icu_678Collator14createInstanceERKNS_6LocaleER10UErrorCode
   fun:ucol_open_67
   obj:/usr/lib/x86_64-linux-gnu/libQt6Core.so.6.2.4
}
{
   d99b1a650cbafcb454864107cdf4c4d6
   Memcheck:Leak
   match-leak-kinds: reachable
   fun:malloc
   fun:strdup
   fun:_XlcCreateLC
   fun:_XlcUtf8Loader
   fun:_XOpenLC
   fun:XmbTextListToTextProperty
   fun:_ZN10QXcbWindow14setWindowTitleEPK14QXcbConnectionjRK7QString
   fun:_ZN14QXcbConnection19getQtSelectionOwnerEv
   obj:/usr/lib/x86_64-linux-gnu/libQt6XcbQpa.so.6.2.4
   fun:_ZN14QXcbConnection17initializeScreensEv
   fun:_ZN14QXcbConnectionC1EP19QXcbNativeInterfacebjPKc
   fun:_ZN15QXcbIntegrationC1ERK5QListI7QStringERiPPc
}
{
   627b241770345eae3ae2e33574d150b8
   Memcheck:Leak
   match-leak-kinds: reachable
   fun:malloc
   obj:/usr/lib/x86_64-linux-gnu/libicuuc.so.67.1
   obj:/usr/lib/x86_64-linux-gnu/libicuuc.so.67.1
   fun:_ZN6icu_6715CollationLoader14loadFromLocaleER10UErrorCode
   fun:_ZNK6icu_6712UnifiedCache4_getERKNS_12CacheKeyBaseERPKNS_12SharedObjectEPKvR10UErrorCode
   fun:_ZN6icu_6715CollationLoader13getCacheEntryER10UErrorCode
   fun:_ZN6icu_6715CollationLoader13loadTailoringERKNS_6LocaleER10UErrorCode
   fun:_ZN6icu_678Collator12makeInstanceERKNS_6LocaleER10UErrorCode
   fun:_ZN6icu_678Collator14createInstanceERKNS_6LocaleER10UErrorCode
   fun:ucol_open_67
   obj:/usr/lib/x86_64-linux-gnu/libQt6Core.so.6.2.4
   fun:_ZN23QFileSystemModelPrivate12sortChildrenEiRK11QModelIndex
}
{
   69d5a187b0d86ac41bc94557b4716722
   Memcheck:Leak
   match-leak-kinds: reachable
   fun:malloc
   fun:g_malloc
   fun:g_slice_alloc
   fun:g_ptr_array_new
   fun:g_main_context_new
   fun:g_main_context_default
   fun:g_main_context_push_thread_default
   fun:_ZN27QEventDispatcherGlibPrivateC1EP13_GMainContext
   fun:_ZN20QEventDispatcherGlibC1EP7QObject
   obj:/usr/lib/x86_64-linux-gnu/libQt6Core.so.6.2.4
   obj:/usr/lib/x86_64-linux-gnu/libQt6Core.so.6.2.4
   obj:/usr/lib/x86_64-linux-gnu/libQt6Core.so.6.2.4
}
{
   9f8400d3d7822798672b656beb6016b6
   Memcheck:Leak
   match-leak-kinds: reachable
   fun:_Znwm
   obj:/usr/lib/x86_64-linux-gnu/libLLVM-11.so.1
   obj:/usr/lib/x86_64-linux-gnu/libLLVM-11.so.1
   obj:/usr/lib/x86_64-linux-gnu/libLLVM-11.so.1
   fun:call_init.part.0
   fun:call_init
   fun:_dl_init
   fun:_dl_catch_exception
   fun:dl_open_worker
   fun:_dl_catch_exception
   fun:_dl_open
   fun:dlopen_doit
   fun:_dl_catch_exception
}
{
   bdd8e58fd7960f82c6c7412c51969bf8
   Memcheck:Leak
   match-leak-kinds: reachable
   fun:_Znwm
   obj:/usr/lib/x86_64-linux-gnu/libLLVM-11.so.1
   fun:__pthread_once_slow
   fun:_ZN4llvm21createLowerInvokePassEv
   fun:_ZN4llvm16TargetPassConfig27addPassesToHandleExceptionsEv
   fun:_ZN4llvm16TargetPassConfig13addISelPassesEv
   fun:_ZN4llvm17LLVMTargetMachine19addPassesToEmitFileERNS_6legacy15PassManagerBaseERNS_17raw_pwrite_streamEPS4_NS_15CodeGenFileTypeEbPNS_28MachineModuleInfoWrapperPassE
   obj:/usr/lib/x86_64-linux-gnu/dri/radeonsi_dri.so
   obj:/usr/lib/x86_64-linux-gnu/dri/radeonsi_dri.so
   obj:/usr/lib/x86_64-linux-gnu/dri/radeonsi_dri.so
   obj:/usr/lib/x86_64-linux-gnu/dri/radeonsi_dri.so
   obj:/usr/lib/x86_64-linux-gnu/dri/radeonsi_dri.so
}
{
   bf41b66e1fa7db16fae3dd9421467e99
   Memcheck:Leak
   match-leak-kinds: reachable
   fun:malloc
   fun:_ZN6icu_677UMemorynwEm
   fun:_ZN6icu_6715CollationLoader14makeCacheEntryERKNS_6LocaleEPKNS_19CollationCacheEntryER10UErrorCode
   fun:_ZN6icu_6715CollationLoader18loadFromCollationsER10UErrorCode
   fun:_ZNK6icu_6712UnifiedCache4_getERKNS_12CacheKeyBaseERPKNS_12SharedObjectEPKvR10UErrorCode
   fun:_ZN6icu_6715CollationLoader13getCacheEntryER10UErrorCode
   fun:_ZN6icu_6715CollationLoader14loadFromLocaleER10UErrorCode
   fun:_ZNK6icu_6712UnifiedCache4_getERKNS_12CacheKeyBaseERPKNS_12SharedObjectEPKvR10UErrorCode
   fun:_ZN6icu_6715CollationLoader13getCacheEntryER10UErrorCode
   fun:_ZN6icu_6715CollationLoader13loadTailoringERKNS_6LocaleER10UErrorCode
   fun:_ZN6icu_678Collator12makeInstanceERKNS_6LocaleER10UErrorCode
   fun:_ZN6icu_678Collator14createInstanceERKNS_6LocaleER10UErrorCode
}
{
   658c5dd0d0a31be125dcf08e85a52c25
   Memcheck:Leak
   match-leak-kinds: reachable
   fun:_Znwm
   obj:/usr/lib/x86_64-linux-gnu/libLLVM-11.so.1
   fun:_ZN4llvm12PassRegistry12registerPassERKNS_8PassInfoEb
   obj:/usr/lib/x86_64-linux-gnu/libLLVM-11.so.1
   fun:__pthread_once_slow
   fun:_ZN4llvm22initializeMIRNamerPassERNS_12PassRegistryE
   fun:_ZN4llvm17initializeCodeGenERNS_12PassRegistryE
   fun:_ZN4llvm16TargetPassConfigC1ERNS_17LLVMTargetMachineERNS_6legacy15PassManagerBaseE
   obj:/usr/lib/x86_64-linux-gnu/libLLVM-11.so.1
   fun:_ZN4llvm17LLVMTargetMachine19addPassesToEmitFileERNS_6legacy15PassManagerBaseERNS_17raw_pwrite_streamEPS4_NS_15CodeGenFileTypeEbPNS_28MachineModuleInfoWrapperPassE
   obj:/usr/lib/x86_64-linux-gnu/dri/radeonsi_dri.so
   obj:/usr/lib/x86_64-linux-gnu/dri/radeonsi_dri.so
}
{
   297cd8855759a06c7bfd7f654484c776
   Memcheck:Leak
   match-leak-kinds: reachable
   fun:malloc
   fun:_ZN6icu_677UMemorynwEm
   fun:_ZN6icu_6727locale_set_default_internalEPKcR10UErrorCode
   fun:_ZN6icu_676Locale10getDefaultEv
   fun:_ZN6icu_676Locale4initEPKca
   fun:_ZN6icu_676LocaleC1Ev
   obj:/usr/lib/x86_64-linux-gnu/libicuuc.so.67.1
   fun:_ZN6icu_676Locale14getLocaleCacheEv
   fun:_ZN6icu_676Locale9getLocaleEi
   fun:_ZN6icu_6713CollationRoot4loadER10UErrorCode
   fun:_ZN6icu_6713CollationRoot17getRootCacheEntryER10UErrorCode
   fun:_ZN6icu_6715CollationLoader13loadTailoringERKNS_6LocaleER10UErrorCode
}
{
   144d49d8ce70af90456c2b32a2c97f53
   Memcheck:Leak
   match-leak-kinds: reachable
   fun:_Znwm
   obj:/usr/lib/x86_64-linux-gnu/libLLVM-11.so.1
   fun:__pthread_once_slow
   fun:_ZN4llvm14createLICMPassEv
   fun:LLVMAddLICMPass
   obj:/usr/lib/x86_64-linux-gnu/dri/radeonsi_dri.so
   obj:/usr/lib/x86_64-linux-gnu/dri/radeonsi_dri.so
   obj:/usr/lib/x86_64-linux-gnu/dri/radeonsi_dri.so
   obj:/usr/lib/x86_64-linux-gnu/dri/radeonsi_dri.so
   obj:/usr/lib/x86_64-linux-gnu/dri/radeonsi_dri.so
   fun:start_thread
   fun:clone
}
{
   3a40c70f0dd5b7678ad98ba3172ca05f
   Memcheck:Leak
   match-leak-kinds: reachable
   fun:_Znwm
   obj:/usr/lib/x86_64-linux-gnu/libLLVM-11.so.1
   fun:__pthread_once_slow
   fun:_ZN4llvm42initializeMachineBranchProbabilityInfoPassERNS_12PassRegistryE
   obj:/usr/lib/x86_64-linux-gnu/libLLVM-11.so.1
   fun:__pthread_once_slow
   fun:_ZN4llvm39initializeMachineBlockFrequencyInfoPassERNS_12PassRegistryE
   obj:/usr/lib/x86_64-linux-gnu/libLLVM-11.so.1
   fun:__pthread_once_slow
   fun:_ZN4llvm27initializeRegBankSelectPassERNS_12PassRegistryE
   fun:_ZN4llvm20initializeGlobalISelERNS_12PassRegistryE
   fun:LLVMInitializeAMDGPUTarget
}
{
   3b7f02ac44cafef7e625ea2d3d0cb800
   Memcheck:Leak
   match-leak-kinds: reachable
   fun:_Znwm
   obj:/usr/lib/x86_64-linux-gnu/libLLVM-11.so.1
   fun:_ZN4llvm12PassRegistry12registerPassERKNS_8PassInfoEb
   obj:/usr/lib/x86_64-linux-gnu/libLLVM-11.so.1
   fun:__pthread_once_slow
   fun:_ZN4llvm40initializeScopedNoAliasAAWrapperPassPassERNS_12PassRegistryE
   obj:/usr/lib/x86_64-linux-gnu/libLLVM-11.so.1
   fun:__pthread_once_slow
   fun:_ZN4llvm34initializeAAResultsWrapperPassPassERNS_12PassRegistryE
   obj:/usr/lib/x86_64-linux-gnu/libLLVM-11.so.1
   fun:__pthread_once_slow
   fun:_ZN4llvm32initializeScopInfoRegionPassPassERNS_12PassRegistryE
}
{
   96c310b0cf755c8e5aa89793fbe7326e
   Memcheck:Leak
   match-leak-kinds: reachable
   fun:malloc
   fun:g_malloc
   fun:g_slice_alloc
   fun:g_thread_self
   fun:g_main_context_acquire
   fun:g_main_context_push_thread_default
   fun:_ZN27QEventDispatcherGlibPrivateC1EP13_GMainContext
   obj:/usr/lib/x86_64-linux-gnu/libQt6XcbQpa.so.6.2.4
   obj:/usr/lib/x86_64-linux-gnu/libQt6XcbQpa.so.6.2.4
   fun:_ZN22QGuiApplicationPrivate21createEventDispatcherEv
   fun:_ZN23QCoreApplicationPrivate4initEv
   fun:_ZN22QGuiApplicationPrivate4initEv
}
{
   26fd02c205d9956775fe01650ebe159d
   Memcheck:Leak
   match-leak-kinds: reachable
   fun:_Znwm
   obj:/usr/lib/x86_64-linux-gnu/libLLVM-11.so.1
   fun:__pthread_once_slow
   fun:_ZN4llvm26initializeJSONExporterPassERNS_12PassRegistryE
   fun:_ZN5polly21initializePollyPassesERN4llvm12PassRegistryE
   obj:/usr/lib/x86_64-linux-gnu/libLLVM-11.so.1
   fun:call_init.part.0
   fun:call_init
   fun:_dl_init
   fun:_dl_catch_exception
   fun:dl_open_worker
   fun:_dl_catch_exception
   fun:_dl_open
}
{
   ffa7f3e5fbdea18dae263e6358a6d96c
   Memcheck:Leak
   match-leak-kinds: reachable
   fun:_Znwm
   obj:/usr/lib/x86_64-linux-gnu/libLLVM-11.so.1
   fun:__pthread_once_slow
   obj:/usr/lib/x86_64-linux-gnu/libLLVM-11.so.1
   fun:_ZN4llvm24createStructurizeCFGPassEb
   obj:/usr/lib/x86_64-linux-gnu/libLLVM-11.so.1
   fun:_ZN4llvm16TargetPassConfig14addISelPrepareEv
   fun:_ZN4llvm16TargetPassConfig13addISelPassesEv
   fun:_ZN4llvm17LLVMTargetMachine19addPassesToEmitFileERNS_6legacy15PassManagerBaseERNS_17raw_pwrite_streamEPS4_NS_15CodeGenFileTypeEbPNS_28MachineModuleInfoWrapperPassE
   obj:/usr/lib/x86_64-linux-gnu/dri/radeonsi_dri.so
   obj:/usr/lib/x86_64-linux-gnu/dri/radeonsi_dri.so
   obj:/usr/lib/x86_64-linux-gnu/dri/radeonsi_dri.so
}
{
   f5fa99f714bfa555330d2e4783eb60e4
   Memcheck:Leak
   match-leak-kinds: reachable
   fun:malloc
   fun:decompose_rpath
   fun:cache_rpath
   fun:cache_rpath
   fun:_dl_map_object
   fun:openaux
   fun:_dl_catch_exception
   fun:_dl_map_object_deps
   fun:dl_open_worker
   fun:_dl_catch_exception
   fun:_dl_open
   fun:dlopen_doit
   fun:_dl_catch_exception
   fun:_dl_catch_error
}
{
   2ae3fffdcd5fe413077d0dfccde6fb57
   Memcheck:Leak
   match-leak-kinds: reachable
   fun:_Znwm
   obj:/usr/lib/x86_64-linux-gnu/libLLVM-11.so.1
   fun:__pthread_once_slow
   fun:_ZN4llvm24initializeMachineCSEPassERNS_12PassRegistryE
   fun:_ZN4llvm17initializeCodeGenERNS_12PassRegistryE
   fun:_ZN4llvm16TargetPassConfigC1ERNS_17LLVMTargetMachineERNS_6legacy15PassManagerBaseE
   obj:/usr/lib/x86_64-linux-gnu/libLLVM-11.so.1
   fun:_ZN4llvm17LLVMTargetMachine19addPassesToEmitFileERNS_6legacy15PassManagerBaseERNS_17raw_pwrite_streamEPS4_NS_15CodeGenFileTypeEbPNS_28MachineModuleInfoWrapperPassE
   obj:/usr/lib/x86_64-linux-gnu/dri/radeonsi_dri.so
   obj:/usr/lib/x86_64-linux-gnu/dri/radeonsi_dri.so
   obj:/usr/lib/x86_64-linux-gnu/dri/radeonsi_dri.so
   obj:/usr/lib/x86_64-linux-gnu/dri/radeonsi_dri.so
}
{
   7c8f0770bb6017899dcae32cf18bbe22
   Memcheck:Leak
   match-leak-kinds: reachable
   fun:_Znwm
   obj:/usr/lib/x86_64-linux-gnu/libLLVM-11.so.1
   fun:_ZN4llvm12PassRegistry12registerPassERKNS_8PassInfoEb
   obj:/usr/lib/x86_64-linux-gnu/libLLVM-11.so.1
   fun:__pthread_once_slow
   fun:_ZN4llvm24initializeLiveStacksPassERNS_12PassRegistryE
   fun:_ZN4llvm17initializeCodeGenERNS_12PassRegistryE
   fun:_ZN4llvm16TargetPassConfigC1ERNS_17LLVMTargetMachineERNS_6legacy15PassManagerBaseE
   obj:/usr/lib/x86_64-linux-gnu/libLLVM-11.so.1
   fun:_ZN4llvm17LLVMTargetMachine19addPassesToEmitFileERNS_6legacy15PassManagerBaseERNS_17raw_pwrite_streamEPS4_NS_15CodeGenFileTypeEbPNS_28MachineModuleInfoWrapperPassE
   obj:/usr/lib/x86_64-linux-gnu/dri/radeonsi_dri.so
   obj:/usr/lib/x86_64-linux-gnu/dri/radeonsi_dri.so
}
{
   88ada2774b49e1720cbcc9f90af20db7
   Memcheck:Leak
   match-leak-kinds: reachable
   fun:_Znwm
   obj:/usr/lib/x86_64-linux-gnu/libLLVM-11.so.1
   fun:__pthread_once_slow
   fun:_ZN4llvm40initializeMachineBlockPlacementStatsPassERNS_12PassRegistryE
   fun:_ZN4llvm17initializeCodeGenERNS_12PassRegistryE
   fun:_ZN4llvm16TargetPassConfigC1ERNS_17LLVMTargetMachineERNS_6legacy15PassManagerBaseE
   obj:/usr/lib/x86_64-linux-gnu/libLLVM-11.so.1
   fun:_ZN4llvm17LLVMTargetMachine19addPassesToEmitFileERNS_6legacy15PassManagerBaseERNS_17raw_pwrite_streamEPS4_NS_15CodeGenFileTypeEbPNS_28MachineModuleInfoWrapperPassE
   obj:/usr/lib/x86_64-linux-gnu/dri/radeonsi_dri.so
   obj:/usr/lib/x86_64-linux-gnu/dri/radeonsi_dri.so
   obj:/usr/lib/x86_64-linux-gnu/dri/radeonsi_dri.so
   obj:/usr/lib/x86_64-linux-gnu/dri/radeonsi_dri.so
}
{
   34b8c229bf47576cb818e5936990cad6
   Memcheck:Leak
   match-leak-kinds: reachable
   fun:_Znwm
   obj:/usr/lib/x86_64-linux-gnu/libLLVM-11.so.1
   fun:__pthread_once_slow
   fun:_ZN4llvm21initializeRABasicPassERNS_12PassRegistryE
   fun:_ZN4llvm17initializeCodeGenERNS_12PassRegistryE
   fun:_ZN4llvm16TargetPassConfigC1ERNS_17LLVMTargetMachineERNS_6legacy15PassManagerBaseE
   obj:/usr/lib/x86_64-linux-gnu/libLLVM-11.so.1
   fun:_ZN4llvm17LLVMTargetMachine19addPassesToEmitFileERNS_6legacy15PassManagerBaseERNS_17raw_pwrite_streamEPS4_NS_15CodeGenFileTypeEbPNS_28MachineModuleInfoWrapperPassE
   obj:/usr/lib/x86_64-linux-gnu/dri/radeonsi_dri.so
   obj:/usr/lib/x86_64-linux-gnu/dri/radeonsi_dri.so
   obj:/usr/lib/x86_64-linux-gnu/dri/radeonsi_dri.so
   obj:/usr/lib/x86_64-linux-gnu/dri/radeonsi_dri.so
}
{
   09c1962f804113b6469d88a640c396d4
   Memcheck:Leak
   match-leak-kinds: reachable
   fun:_Znwm
   obj:/usr/lib/x86_64-linux-gnu/libLLVM-11.so.1
   fun:__pthread_once_slow
   fun:_ZN4llvm41createPostInlineEntryExitInstrumenterPassEv
   fun:_ZN4llvm16TargetPassConfig11addIRPassesEv
   obj:/usr/lib/x86_64-linux-gnu/libLLVM-11.so.1
   fun:_ZN4llvm16TargetPassConfig13addISelPassesEv
   fun:_ZN4llvm17LLVMTargetMachine19addPassesToEmitFileERNS_6legacy15PassManagerBaseERNS_17raw_pwrite_streamEPS4_NS_15CodeGenFileTypeEbPNS_28MachineModuleInfoWrapperPassE
   obj:/usr/lib/x86_64-linux-gnu/dri/radeonsi_dri.so
   obj:/usr/lib/x86_64-linux-gnu/dri/radeonsi_dri.so
   obj:/usr/lib/x86_64-linux-gnu/dri/radeonsi_dri.so
   obj:/usr/lib/x86_64-linux-gnu/dri/radeonsi_dri.so
}
{
   4574c79a4311d0f966190b522901bf5e
   Memcheck:Leak
   match-leak-kinds: reachable
   fun:_Znwm
   obj:/usr/lib/x86_64-linux-gnu/libLLVM-11.so.1
   fun:__pthread_once_slow
   fun:_ZN4llvm37initializeStripDebugMachineModulePassERNS_12PassRegistryE
   fun:_ZN4llvm17initializeCodeGenERNS_12PassRegistryE
   fun:_ZN4llvm16TargetPassConfigC1ERNS_17LLVMTargetMachineERNS_6legacy15PassManagerBaseE
   obj:/usr/lib/x86_64-linux-gnu/libLLVM-11.so.1
   fun:_ZN4llvm17LLVMTargetMachine19addPassesToEmitFileERNS_6legacy15PassManagerBaseERNS_17raw_pwrite_streamEPS4_NS_15CodeGenFileTypeEbPNS_28MachineModuleInfoWrapperPassE
   obj:/usr/lib/x86_64-linux-gnu/dri/radeonsi_dri.so
   obj:/usr/lib/x86_64-linux-gnu/dri/radeonsi_dri.so
   obj:/usr/lib/x86_64-linux-gnu/dri/radeonsi_dri.so
   obj:/usr/lib/x86_64-linux-gnu/dri/radeonsi_dri.so
}
{
   88c8d80766775a16267062adfc863de2
   Memcheck:Leak
   match-leak-kinds: reachable
   fun:_Znwm
   obj:/usr/lib/x86_64-linux-gnu/libLLVM-11.so.1
   fun:__pthread_once_slow
   fun:_ZN4llvm34initializePhiValuesWrapperPassPassERNS_12PassRegistryE
   obj:/usr/lib/x86_64-linux-gnu/libLLVM-11.so.1
   fun:__pthread_once_slow
   fun:_ZN4llvm32initializeBasicAAWrapperPassPassERNS_12PassRegistryE
   obj:/usr/lib/x86_64-linux-gnu/libLLVM-11.so.1
   fun:__pthread_once_slow
   fun:_ZN4llvm34initializeAAResultsWrapperPassPassERNS_12PassRegistryE
   obj:/usr/lib/x86_64-linux-gnu/libLLVM-11.so.1
   fun:__pthread_once_slow
}
{
   be8f7b239c30276cfdccf93a0c81c810
   Memcheck:Leak
   match-leak-kinds: reachable
   fun:_Znwm
   obj:/usr/lib/x86_64-linux-gnu/libLLVM-11.so.1
   fun:__pthread_once_slow
   fun:_ZN4llvm42initializeDominanceFrontierWrapperPassPassERNS_12PassRegistryE
   obj:/usr/lib/x86_64-linux-gnu/libLLVM-11.so.1
   fun:__pthread_once_slow
   fun:_ZN4llvm28initializeRegionInfoPassPassERNS_12PassRegistryE
   obj:/usr/lib/x86_64-linux-gnu/libLLVM-11.so.1
   fun:__pthread_once_slow
   fun:_ZN4llvm32initializeScopInfoRegionPassPassERNS_12PassRegistryE
   obj:/usr/lib/x86_64-linux-gnu/libLLVM-11.so.1
   fun:__pthread_once_slow
}
{
   df1f3e166ea3b236f8498277bb663b88
   Memcheck:Leak
   match-leak-kinds: reachable
   fun:_Znwm
   obj:/usr/lib/x86_64-linux-gnu/libLLVM-11.so.1
   fun:__pthread_once_slow
   fun:_ZN4llvm28initializeDummyCGSCCPassPassERNS_12PassRegistryE
   fun:_ZN4llvm16TargetPassConfig14addISelPrepareEv
   fun:_ZN4llvm16TargetPassConfig13addISelPassesEv
   fun:_ZN4llvm17LLVMTargetMachine19addPassesToEmitFileERNS_6legacy15PassManagerBaseERNS_17raw_pwrite_streamEPS4_NS_15CodeGenFileTypeEbPNS_28MachineModuleInfoWrapperPassE
   obj:/usr/lib/x86_64-linux-gnu/dri/radeonsi_dri.so
   obj:/usr/lib/x86_64-linux-gnu/dri/radeonsi_dri.so
   obj:/usr/lib/x86_64-linux-gnu/dri/radeonsi_dri.so
   obj:/usr/lib/x86_64-linux-gnu/dri/radeonsi_dri.so
   obj:/usr/lib/x86_64-linux-gnu/dri/radeonsi_dri.so
}
{
   f488295c5738eb4f71265cdd9574b6da
   Memcheck:Leak
   match-leak-kinds: reachable
   fun:_Znwm
   obj:/usr/lib/x86_64-linux-gnu/libLLVM-11.so.1
   fun:_ZN4llvm12PassRegistry12registerPassERKNS_8PassInfoEb
   obj:/usr/lib/x86_64-linux-gnu/libLLVM-11.so.1
   fun:__pthread_once_slow
   fun:_ZN4llvm32initializeModuloScheduleTestPassERNS_12PassRegistryE
   fun:_ZN4llvm17initializeCodeGenERNS_12PassRegistryE
   fun:_ZN4llvm16TargetPassConfigC1ERNS_17LLVMTargetMachineERNS_6legacy15PassManagerBaseE
   obj:/usr/lib/x86_64-linux-gnu/libLLVM-11.so.1
   fun:_ZN4llvm17LLVMTargetMachine19addPassesToEmitFileERNS_6legacy15PassManagerBaseERNS_17raw_pwrite_streamEPS4_NS_15CodeGenFileTypeEbPNS_28MachineModuleInfoWrapperPassE
   obj:/usr/lib/x86_64-linux-gnu/dri/radeonsi_dri.so
   obj:/usr/lib/x86_64-linux-gnu/dri/radeonsi_dri.so
}
{
   247314ad7bf035ef3e21ffdcc033685c
   Memcheck:Leak
   match-leak-kinds: reachable
   fun:_Znwm
   obj:/usr/lib/x86_64-linux-gnu/libLLVM-11.so.1
   fun:__pthread_once_slow
   fun:_ZN4llvm28initializeSpillPlacementPassERNS_12PassRegistryE
   obj:/usr/lib/x86_64-linux-gnu/libLLVM-11.so.1
   fun:__pthread_once_slow
   fun:_ZN4llvm22initializeRAGreedyPassERNS_12PassRegistryE
   fun:_ZN4llvm17initializeCodeGenERNS_12PassRegistryE
   fun:_ZN4llvm16TargetPassConfigC1ERNS_17LLVMTargetMachineERNS_6legacy15PassManagerBaseE
   obj:/usr/lib/x86_64-linux-gnu/libLLVM-11.so.1
   fun:_ZN4llvm17LLVMTargetMachine19addPassesToEmitFileERNS_6legacy15PassManagerBaseERNS_17raw_pwrite_streamEPS4_NS_15CodeGenFileTypeEbPNS_28MachineModuleInfoWrapperPassE
   obj:/usr/lib/x86_64-linux-gnu/dri/radeonsi_dri.so
}
{
   c183a5fc35043eacd9f199e72f61283c
   Memcheck:Leak
   match-leak-kinds: reachable
   fun:_Znwm
   obj:/usr/lib/x86_64-linux-gnu/libLLVM-11.so.1
   fun:__pthread_once_slow
   fun:_ZN4llvm40initializeMachineFunctionPrinterPassPassERNS_12PassRegistryE
   fun:_ZN4llvm17initializeCodeGenERNS_12PassRegistryE
   fun:_ZN4llvm16TargetPassConfigC1ERNS_17LLVMTargetMachineERNS_6legacy15PassManagerBaseE
   obj:/usr/lib/x86_64-linux-gnu/libLLVM-11.so.1
   fun:_ZN4llvm17LLVMTargetMachine19addPassesToEmitFileERNS_6legacy15PassManagerBaseERNS_17raw_pwrite_streamEPS4_NS_15CodeGenFileTypeEbPNS_28MachineModuleInfoWrapperPassE
   obj:/usr/lib/x86_64-linux-gnu/dri/radeonsi_dri.so
   obj:/usr/lib/x86_64-linux-gnu/dri/radeonsi_dri.so
   obj:/usr/lib/x86_64-linux-gnu/dri/radeonsi_dri.so
   obj:/usr/lib/x86_64-linux-gnu/dri/radeonsi_dri.so
}
{
   6cde3c4c18dd9125ffc981fb8679ae3e
   Memcheck:Leak
   match-leak-kinds: reachable
   fun:_Znwm
   obj:/usr/lib/x86_64-linux-gnu/libLLVM-11.so.1
   fun:_ZN4llvm12PassRegistry12registerPassERKNS_8PassInfoEb
   obj:/usr/lib/x86_64-linux-gnu/libLLVM-11.so.1
   fun:__pthread_once_slow
   fun:_ZN4llvm34initializeUnpackMachineBundlesPassERNS_12PassRegistryE
   fun:_ZN4llvm17initializeCodeGenERNS_12PassRegistryE
   fun:_ZN4llvm16TargetPassConfigC1ERNS_17LLVMTargetMachineERNS_6legacy15PassManagerBaseE
   obj:/usr/lib/x86_64-linux-gnu/libLLVM-11.so.1
   fun:_ZN4llvm17LLVMTargetMachine19addPassesToEmitFileERNS_6legacy15PassManagerBaseERNS_17raw_pwrite_streamEPS4_NS_15CodeGenFileTypeEbPNS_28MachineModuleInfoWrapperPassE
   obj:/usr/lib/x86_64-linux-gnu/dri/radeonsi_dri.so
   obj:/usr/lib/x86_64-linux-gnu/dri/radeonsi_dri.so
}
{
   613fe0544f4fbc1e817e1282959ca229
   Memcheck:Leak
   match-leak-kinds: reachable
   fun:_Znwm
   obj:/usr/lib/x86_64-linux-gnu/libLLVM-11.so.1
   fun:_ZN4llvm12PassRegistry12registerPassERKNS_8PassInfoEb
   obj:/usr/lib/x86_64-linux-gnu/libLLVM-11.so.1
   fun:__pthread_once_slow
   fun:_ZN4llvm30initializeMachineSchedulerPassERNS_12PassRegistryE
   fun:_ZN4llvm17initializeCodeGenERNS_12PassRegistryE
   fun:_ZN4llvm16TargetPassConfigC1ERNS_17LLVMTargetMachineERNS_6legacy15PassManagerBaseE
   obj:/usr/lib/x86_64-linux-gnu/libLLVM-11.so.1
   fun:_ZN4llvm17LLVMTargetMachine19addPassesToEmitFileERNS_6legacy15PassManagerBaseERNS_17raw_pwrite_streamEPS4_NS_15CodeGenFileTypeEbPNS_28MachineModuleInfoWrapperPassE
   obj:/usr/lib/x86_64-linux-gnu/dri/radeonsi_dri.so
   obj:/usr/lib/x86_64-linux-gnu/dri/radeonsi_dri.so
}
{
   2cfd80692210f1b9d67e2d72dbccdde8
   Memcheck:Leak
   match-leak-kinds: reachable
   fun:_Znwm
   obj:/usr/lib/x86_64-linux-gnu/libLLVM-11.so.1
   fun:_ZN4llvm12PassRegistry12registerPassERKNS_8PassInfoEb
   obj:/usr/lib/x86_64-linux-gnu/libLLVM-11.so.1
   fun:__pthread_once_slow
   fun:_ZN4llvm31initializeBBSectionsPreparePassERNS_12PassRegistryE
   fun:_ZN4llvm17initializeCodeGenERNS_12PassRegistryE
   fun:_ZN4llvm16TargetPassConfigC1ERNS_17LLVMTargetMachineERNS_6legacy15PassManagerBaseE
   obj:/usr/lib/x86_64-linux-gnu/libLLVM-11.so.1
   fun:_ZN4llvm17LLVMTargetMachine19addPassesToEmitFileERNS_6legacy15PassManagerBaseERNS_17raw_pwrite_streamEPS4_NS_15CodeGenFileTypeEbPNS_28MachineModuleInfoWrapperPassE
   obj:/usr/lib/x86_64-linux-gnu/dri/radeonsi_dri.so
   obj:/usr/lib/x86_64-linux-gnu/dri/radeonsi_dri.so
}
{
   4374f54c604eecddaec751db10801c0e
   Memcheck:Leak
   match-leak-kinds: reachable
   fun:malloc
   fun:realloc
   fun:g_realloc
   obj:/usr/lib/x86_64-linux-gnu/libglib-2.0.so.0.6600.8
   fun:g_hash_table_new_full
   obj:/usr/lib/x86_64-linux-gnu/libglib-2.0.so.0.6600.8
   fun:call_init.part.0
   fun:call_init
   fun:_dl_init
   obj:/usr/lib/x86_64-linux-gnu/ld-2.31.so
}
{
   e27d997320d086f1ea7b6b24d8155806
   Memcheck:Leak
   match-leak-kinds: reachable
   fun:malloc
   obj:/usr/lib/x86_64-linux-gnu/libX11.so.6.4.0
   fun:_XrmInternalStringToQuark
   fun:_XlcGetCharSet
   fun:_XlcAddCT
   fun:_XlcInitCTInfo
   obj:/usr/lib/x86_64-linux-gnu/libX11.so.6.4.0
   obj:/usr/lib/x86_64-linux-gnu/libX11.so.6.4.0
   fun:_XlcCreateLC
   fun:_XlcUtf8Loader
   fun:_XOpenLC
   fun:XmbTextListToTextProperty
}
{
   594f5ef71eeb70b7a59acde00870e1b6
   Memcheck:Leak
   match-leak-kinds: reachable
   fun:malloc
   fun:g_malloc
   fun:g_slice_alloc
   fun:g_hash_table_new_full
   fun:g_main_context_new
   fun:g_main_context_default
   fun:g_main_context_push_thread_default
   fun:_ZN27QEventDispatcherGlibPrivateC1EP13_GMainContext
   fun:_ZN20QEventDispatcherGlibC1EP7QObject
   obj:/usr/lib/x86_64-linux-gnu/libQt6Core.so.6.2.4
   obj:/usr/lib/x86_64-linux-gnu/libQt6Core.so.6.2.4
   obj:/usr/lib/x86_64-linux-gnu/libQt6Core.so.6.2.4
}
{
   ee20e33881d40853dfbaaec6750ad97b
   Memcheck:Leak
   match-leak-kinds: reachable
   fun:_Znwm
   obj:/usr/lib/x86_64-linux-gnu/libLLVM-11.so.1
   fun:__pthread_once_slow
   fun:_ZN4llvm30initializeBranchFolderPassPassERNS_12PassRegistryE
   fun:_ZN4llvm17initializeCodeGenERNS_12PassRegistryE
   fun:_ZN4llvm16TargetPassConfigC1ERNS_17LLVMTargetMachineERNS_6legacy15PassManagerBaseE
   obj:/usr/lib/x86_64-linux-gnu/libLLVM-11.so.1
   fun:_ZN4llvm17LLVMTargetMachine19addPassesToEmitFileERNS_6legacy15PassManagerBaseERNS_17raw_pwrite_streamEPS4_NS_15CodeGenFileTypeEbPNS_28MachineModuleInfoWrapperPassE
   obj:/usr/lib/x86_64-linux-gnu/dri/radeonsi_dri.so
   obj:/usr/lib/x86_64-linux-gnu/dri/radeonsi_dri.so
   obj:/usr/lib/x86_64-linux-gnu/dri/radeonsi_dri.so
   obj:/usr/lib/x86_64-linux-gnu/dri/radeonsi_dri.so
}
{
   88aecb6807cae5e0710b7d822129e748
   Memcheck:Leak
   match-leak-kinds: reachable
   fun:_Znwm
   obj:/usr/lib/x86_64-linux-gnu/libLLVM-11.so.1
   fun:_ZN4llvm12PassRegistry12registerPassERKNS_8PassInfoEb
   obj:/usr/lib/x86_64-linux-gnu/libLLVM-11.so.1
   fun:__pthread_once_slow
   fun:_ZN4llvm32initializeBasicAAWrapperPassPassERNS_12PassRegistryE
   obj:/usr/lib/x86_64-linux-gnu/libLLVM-11.so.1
   fun:__pthread_once_slow
   fun:_ZN4llvm34initializeAAResultsWrapperPassPassERNS_12PassRegistryE
   obj:/usr/lib/x86_64-linux-gnu/libLLVM-11.so.1
   fun:__pthread_once_slow
   fun:_ZN4llvm32initializeScopInfoRegionPassPassERNS_12PassRegistryE
}
{
   57dd02e9eb9e8b09ca2751108bf90b60
   Memcheck:Leak
   match-leak-kinds: reachable
   fun:_Znwm
   obj:/usr/lib/x86_64-linux-gnu/libLLVM-11.so.1
   fun:_ZN4llvm12PassRegistry12registerPassERKNS_8PassInfoEb
   obj:/usr/lib/x86_64-linux-gnu/libLLVM-11.so.1
   fun:__pthread_once_slow
   fun:_ZN4llvm28initializeDwarfEHPreparePassERNS_12PassRegistryE
   fun:_ZN4llvm17initializeCodeGenERNS_12PassRegistryE
   fun:_ZN4llvm16TargetPassConfigC1ERNS_17LLVMTargetMachineERNS_6legacy15PassManagerBaseE
   obj:/usr/lib/x86_64-linux-gnu/libLLVM-11.so.1
   fun:_ZN4llvm17LLVMTargetMachine19addPassesToEmitFileERNS_6legacy15PassManagerBaseERNS_17raw_pwrite_streamEPS4_NS_15CodeGenFileTypeEbPNS_28MachineModuleInfoWrapperPassE
   obj:/usr/lib/x86_64-linux-gnu/dri/radeonsi_dri.so
   obj:/usr/lib/x86_64-linux-gnu/dri/radeonsi_dri.so
}
{
   69736310f52daa54d2fb200e5ac42d80
   Memcheck:Leak
   match-leak-kinds: reachable
   fun:_Znwm
   obj:/usr/lib/x86_64-linux-gnu/libLLVM-11.so.1
   fun:__pthread_once_slow
   fun:_ZN4llvm41initializeUnreachableMachineBlockElimPassERNS_12PassRegistryE
   obj:/usr/lib/x86_64-linux-gnu/libLLVM-11.so.1
   fun:__pthread_once_slow
   fun:_ZN4llvm27initializeLiveVariablesPassERNS_12PassRegistryE
   fun:_ZN4llvm17initializeCodeGenERNS_12PassRegistryE
   fun:_ZN4llvm16TargetPassConfigC1ERNS_17LLVMTargetMachineERNS_6legacy15PassManagerBaseE
   obj:/usr/lib/x86_64-linux-gnu/libLLVM-11.so.1
   fun:_ZN4llvm17LLVMTargetMachine19addPassesToEmitFileERNS_6legacy15PassManagerBaseERNS_17raw_pwrite_streamEPS4_NS_15CodeGenFileTypeEbPNS_28MachineModuleInfoWrapperPassE
   obj:/usr/lib/x86_64-linux-gnu/dri/radeonsi_dri.so
}
{
   822e8a2a238254aa2aec2f6f12a0fc30
   Memcheck:Leak
   match-leak-kinds: reachable
   fun:_Znwm
   obj:/usr/lib/x86_64-linux-gnu/libLLVM-11.so.1
   fun:_ZN4llvm12PassRegistry12registerPassERKNS_8PassInfoEb
   obj:/usr/lib/x86_64-linux-gnu/libLLVM-11.so.1
   fun:__pthread_once_slow
   fun:_ZN4llvm26initializeIRTranslatorPassERNS_12PassRegistryE
   fun:_ZN4llvm20initializeGlobalISelERNS_12PassRegistryE
   fun:LLVMInitializeAMDGPUTarget
   obj:/usr/lib/x86_64-linux-gnu/dri/radeonsi_dri.so
   fun:__pthread_once_slow
   obj:/usr/lib/x86_64-linux-gnu/dri/radeonsi_dri.so
   obj:/usr/lib/x86_64-linux-gnu/dri/radeonsi_dri.so
}
{
   a427983225f5fd9ef3af7ba8d469efc5
   Memcheck:Leak
   match-leak-kinds: reachable
   fun:_Znwm
   obj:/usr/lib/x86_64-linux-gnu/libLLVM-11.so.1
   fun:_ZN4llvm12PassRegistry12registerPassERKNS_8PassInfoEb
   obj:/usr/lib/x86_64-linux-gnu/libLLVM-11.so.1
   fun:__pthread_once_slow
   fun:_ZN4llvm38initializeScalarizeMaskedMemIntrinPassERNS_12PassRegistryE
   fun:_ZN4llvm17initializeCodeGenERNS_12PassRegistryE
   fun:_ZN4llvm16TargetPassConfigC1ERNS_17LLVMTargetMachineERNS_6legacy15PassManagerBaseE
   obj:/usr/lib/x86_64-linux-gnu/libLLVM-11.so.1
   fun:_ZN4llvm17LLVMTargetMachine19addPassesToEmitFileERNS_6legacy15PassManagerBaseERNS_17raw_pwrite_streamEPS4_NS_15CodeGenFileTypeEbPNS_28MachineModuleInfoWrapperPassE
   obj:/usr/lib/x86_64-linux-gnu/dri/radeonsi_dri.so
   obj:/usr/lib/x86_64-linux-gnu/dri/radeonsi_dri.so
}
{
   3ea89c59a0118ce3d66c4e81a74164b7
   Memcheck:Leak
   match-leak-kinds: reachable
   fun:_Znwm
   obj:/usr/lib/x86_64-linux-gnu/libLLVM-11.so.1
   fun:__pthread_once_slow
   fun:_ZN4llvm38initializeMachineDominanceFrontierPassERNS_12PassRegistryE
   obj:/usr/lib/x86_64-linux-gnu/libLLVM-11.so.1
   fun:__pthread_once_slow
   fun:_ZN4llvm35initializeMachineRegionInfoPassPassERNS_12PassRegistryE
   fun:_ZN4llvm17initializeCodeGenERNS_12PassRegistryE
   fun:_ZN4llvm16TargetPassConfigC1ERNS_17LLVMTargetMachineERNS_6legacy15PassManagerBaseE
   obj:/usr/lib/x86_64-linux-gnu/libLLVM-11.so.1
   fun:_ZN4llvm17LLVMTargetMachine19addPassesToEmitFileERNS_6legacy15PassManagerBaseERNS_17raw_pwrite_streamEPS4_NS_15CodeGenFileTypeEbPNS_28MachineModuleInfoWrapperPassE
   obj:/usr/lib/x86_64-linux-gnu/dri/radeonsi_dri.so
}
{
   cc5a25652e4c7aad8caec0f5c4ac83e2
   Memcheck:Leak
   match-leak-kinds: reachable
   fun:malloc
   fun:_XlcAddCharSet
   obj:/usr/lib/x86_64-linux-gnu/libX11.so.6.4.0
   obj:/usr/lib/x86_64-linux-gnu/libX11.so.6.4.0
   fun:_XlcCreateLC
   fun:_XlcUtf8Loader
   fun:_XOpenLC
   fun:XmbTextListToTextProperty
   fun:_ZN10QXcbWindow14setWindowTitleEPK14QXcbConnectionjRK7QString
   fun:_ZN14QXcbConnection19getQtSelectionOwnerEv
   obj:/usr/lib/x86_64-linux-gnu/libQt6XcbQpa.so.6.2.4
   fun:_ZN14QXcbConnection17initializeScreensEv
}
{
   f267ff34a1b810727c498582ab8a9720
   Memcheck:Leak
   match-leak-kinds: reachable
   fun:_Znwm
   obj:/usr/lib/x86_64-linux-gnu/libLLVM-11.so.1
   fun:_ZN4llvm12PassRegistry12registerPassERKNS_8PassInfoEb
   obj:/usr/lib/x86_64-linux-gnu/libLLVM-11.so.1
   fun:__pthread_once_slow
   fun:_ZN4llvm26initializeDeadCodeElimPassERNS_12PassRegistryE
   fun:_ZN5polly21initializePollyPassesERN4llvm12PassRegistryE
   obj:/usr/lib/x86_64-linux-gnu/libLLVM-11.so.1
   fun:call_init.part.0
   fun:call_init
   fun:_dl_init
   fun:_dl_catch_exception
   fun:dl_open_worker
}
{
   438aa62571f96c81922ef8eb38615656
   Memcheck:Leak
   match-leak-kinds: reachable
   fun:calloc
   fun:g_malloc0
   obj:/usr/lib/x86_64-linux-gnu/libglib-2.0.so.0.6600.8
   fun:g_main_context_dispatch
   obj:/usr/lib/x86_64-linux-gnu/libglib-2.0.so.0.6600.8
   fun:g_main_context_iteration
   fun:_ZN20QEventDispatcherGlib13processEventsE6QFlagsIN10QEventLoop17ProcessEventsFlagEE
   fun:_ZN10QEventLoop4execE6QFlagsINS_17ProcessEventsFlagEE
   fun:_ZN16QCoreApplication4execEv
   fun:main
}
{
   cb5fcc5fca27d4987033defdf3ae8b63
   Memcheck:Leak
   match-leak-kinds: reachable
   fun:_Znwm
   obj:/usr/lib/x86_64-linux-gnu/libLLVM-11.so.1
   fun:_ZN4llvm12PassRegistry12registerPassERKNS_8PassInfoEb
   obj:/usr/lib/x86_64-linux-gnu/libLLVM-11.so.1
   fun:__pthread_once_slow
   fun:_ZN4llvm38initializeLazyValueInfoWrapperPassPassERNS_12PassRegistryE
   obj:/usr/lib/x86_64-linux-gnu/libLLVM-11.so.1
   fun:__pthread_once_slow
   fun:_ZN4llvm21createLowerSwitchPassEv
   obj:/usr/lib/x86_64-linux-gnu/libLLVM-11.so.1
   fun:_ZN4llvm16TargetPassConfig13addISelPassesEv
   fun:_ZN4llvm17LLVMTargetMachine19addPassesToEmitFileERNS_6legacy15PassManagerBaseERNS_17raw_pwrite_streamEPS4_NS_15CodeGenFileTypeEbPNS_28MachineModuleInfoWrapperPassE
}
{
   3addb1d240f430058b3a115cf7a2d391
   Memcheck:Leak
   match-leak-kinds: reachable
   fun:_Znwm
   obj:/usr/lib/x86_64-linux-gnu/libLLVM-11.so.1
   fun:_ZN4llvm12PassRegistry12registerPassERKNS_8PassInfoEb
   obj:/usr/lib/x86_64-linux-gnu/libLLVM-11.so.1
   fun:__pthread_once_slow
   fun:_ZN4llvm38initializeMachinePostDominatorTreePassERNS_12PassRegistryE
   obj:/usr/lib/x86_64-linux-gnu/libLLVM-11.so.1
   fun:__pthread_once_slow
   obj:/usr/lib/x86_64-linux-gnu/libLLVM-11.so.1
   fun:LLVMInitializeAMDGPUTarget
   obj:/usr/lib/x86_64-linux-gnu/dri/radeonsi_dri.so
   fun:__pthread_once_slow
}
{
   e13c32e7d0c8597c14f3e365d18d32fe
   Memcheck:Leak
   match-leak-kinds: reachable
   fun:_Znwm
   obj:/usr/lib/x86_64-linux-gnu/libLLVM-11.so.1
   fun:__pthread_once_slow
   fun:_ZN4llvm35initializeMachineBlockPlacementPassERNS_12PassRegistryE
   fun:_ZN4llvm17initializeCodeGenERNS_12PassRegistryE
   fun:_ZN4llvm16TargetPassConfigC1ERNS_17LLVMTargetMachineERNS_6legacy15PassManagerBaseE
   obj:/usr/lib/x86_64-linux-gnu/libLLVM-11.so.1
   fun:_ZN4llvm17LLVMTargetMachine19addPassesToEmitFileERNS_6legacy15PassManagerBaseERNS_17raw_pwrite_streamEPS4_NS_15CodeGenFileTypeEbPNS_28MachineModuleInfoWrapperPassE
   obj:/usr/lib/x86_64-linux-gnu/dri/radeonsi_dri.so
   obj:/usr/lib/x86_64-linux-gnu/dri/radeonsi_dri.so
   obj:/usr/lib/x86_64-linux-gnu/dri/radeonsi_dri.so
   obj:/usr/lib/x86_64-linux-gnu/dri/radeonsi_dri.so
}
{
   af40d9c5f4ee48788e2c8f8f625882dd
   Memcheck:Leak
   match-leak-kinds: reachable
   fun:malloc
   fun:_ZN6icu_677UMemorynwEm
   fun:_ZNK6icu_6714LocaleCacheKeyINS_19CollationCacheEntryEE5cloneEv
   fun:_ZNK6icu_6712UnifiedCache7_putNewERKNS_12CacheKeyBaseEPKNS_12SharedObjectE10UErrorCodeRS7_
   fun:_ZNK6icu_6712UnifiedCache5_pollERKNS_12CacheKeyBaseERPKNS_12SharedObjectER10UErrorCode
   fun:_ZNK6icu_6712UnifiedCache4_getERKNS_12CacheKeyBaseERPKNS_12SharedObjectEPKvR10UErrorCode
   fun:_ZN6icu_6715CollationLoader13getCacheEntryER10UErrorCode
   fun:_ZN6icu_6715CollationLoader13loadTailoringERKNS_6LocaleER10UErrorCode
   fun:_ZN6icu_678Collator12makeInstanceERKNS_6LocaleER10UErrorCode
   fun:_ZN6icu_678Collator14createInstanceERKNS_6LocaleER10UErrorCode
   fun:ucol_open_67
   obj:/usr/lib/x86_64-linux-gnu/libQt6Core.so.6.2.4
}
{
   997e4c40be3e13591dcabdf98511f227
   Memcheck:Leak
   match-leak-kinds: reachable
   fun:malloc
   fun:_XlcAddCharSet
   fun:_XlcAddCT
   fun:_XlcInitCTInfo
   obj:/usr/lib/x86_64-linux-gnu/libX11.so.6.4.0
   obj:/usr/lib/x86_64-linux-gnu/libX11.so.6.4.0
   fun:_XlcCreateLC
   fun:_XlcUtf8Loader
   fun:_XOpenLC
   fun:XmbTextListToTextProperty
   fun:_ZN10QXcbWindow14setWindowTitleEPK14QXcbConnectionjRK7QString
   fun:_ZN14QXcbConnection19getQtSelectionOwnerEv
}
{
   c923efb3d68e9835bca0af90e0f3acee
   Memcheck:Leak
   match-leak-kinds: reachable
   fun:_Znwm
   obj:/usr/lib/x86_64-linux-gnu/libLLVM-11.so.1
   fun:__pthread_once_slow
   fun:_ZN4llvm31initializeSCEVAAWrapperPassPassERNS_12PassRegistryE
   obj:/usr/lib/x86_64-linux-gnu/libLLVM-11.so.1
   fun:__pthread_once_slow
   fun:_ZN4llvm34initializeAAResultsWrapperPassPassERNS_12PassRegistryE
   obj:/usr/lib/x86_64-linux-gnu/libLLVM-11.so.1
   fun:__pthread_once_slow
   fun:_ZN4llvm32initializeScopInfoRegionPassPassERNS_12PassRegistryE
   obj:/usr/lib/x86_64-linux-gnu/libLLVM-11.so.1
   fun:__pthread_once_slow
}
{
   9793f5701a08d4f269ae3f58f5bb9f43
   Memcheck:Leak
   match-leak-kinds: reachable
   fun:_Znwm
   obj:/usr/lib/x86_64-linux-gnu/libLLVM-11.so.1
   fun:__pthread_once_slow
   fun:_ZN4llvm27initializeSjLjEHPreparePassERNS_12PassRegistryE
   fun:_ZN4llvm17initializeCodeGenERNS_12PassRegistryE
   fun:_ZN4llvm16TargetPassConfigC1ERNS_17LLVMTargetMachineERNS_6legacy15PassManagerBaseE
   obj:/usr/lib/x86_64-linux-gnu/libLLVM-11.so.1
   fun:_ZN4llvm17LLVMTargetMachine19addPassesToEmitFileERNS_6legacy15PassManagerBaseERNS_17raw_pwrite_streamEPS4_NS_15CodeGenFileTypeEbPNS_28MachineModuleInfoWrapperPassE
   obj:/usr/lib/x86_64-linux-gnu/dri/radeonsi_dri.so
   obj:/usr/lib/x86_64-linux-gnu/dri/radeonsi_dri.so
   obj:/usr/lib/x86_64-linux-gnu/dri/radeonsi_dri.so
   obj:/usr/lib/x86_64-linux-gnu/dri/radeonsi_dri.so
}
{
   8f503fb29023d71a3c2920e64d547d7f
   Memcheck:Leak
   match-leak-kinds: reachable
   fun:_Znwm
   obj:/usr/lib/x86_64-linux-gnu/libLLVM-11.so.1
   fun:_ZN4llvm12PassRegistry12registerPassERKNS_8PassInfoEb
   obj:/usr/lib/x86_64-linux-gnu/libLLVM-11.so.1
   fun:__pthread_once_slow
   fun:_ZN4llvm34initializePostRAMachineSinkingPassERNS_12PassRegistryE
   fun:_ZN4llvm17initializeCodeGenERNS_12PassRegistryE
   fun:_ZN4llvm16TargetPassConfigC1ERNS_17LLVMTargetMachineERNS_6legacy15PassManagerBaseE
   obj:/usr/lib/x86_64-linux-gnu/libLLVM-11.so.1
   fun:_ZN4llvm17LLVMTargetMachine19addPassesToEmitFileERNS_6legacy15PassManagerBaseERNS_17raw_pwrite_streamEPS4_NS_15CodeGenFileTypeEbPNS_28MachineModuleInfoWrapperPassE
   obj:/usr/lib/x86_64-linux-gnu/dri/radeonsi_dri.so
   obj:/usr/lib/x86_64-linux-gnu/dri/radeonsi_dri.so
}
{
   599b3386b1ec014bfcdbcc1e6210cf1f
   Memcheck:Leak
   match-leak-kinds: reachable
   fun:_Znwm
   obj:/usr/lib/x86_64-linux-gnu/libLLVM-11.so.1
   fun:_ZN4llvm12PassRegistry12registerPassERKNS_8PassInfoEb
   obj:/usr/lib/x86_64-linux-gnu/libLLVM-11.so.1
   fun:__pthread_once_slow
   fun:_ZN4llvm26createConstantHoistingPassEv
   fun:_ZN4llvm16TargetPassConfig11addIRPassesEv
   obj:/usr/lib/x86_64-linux-gnu/libLLVM-11.so.1
   fun:_ZN4llvm16TargetPassConfig13addISelPassesEv
   fun:_ZN4llvm17LLVMTargetMachine19addPassesToEmitFileERNS_6legacy15PassManagerBaseERNS_17raw_pwrite_streamEPS4_NS_15CodeGenFileTypeEbPNS_28MachineModuleInfoWrapperPassE
   obj:/usr/lib/x86_64-linux-gnu/dri/radeonsi_dri.so
   obj:/usr/lib/x86_64-linux-gnu/dri/radeonsi_dri.so
}
{
   60a725b4d6dfca9538c1f76bc2c16a2f
   Memcheck:Leak
   match-leak-kinds: reachable
   fun:_Znwm
   obj:/usr/lib/x86_64-linux-gnu/libLLVM-11.so.1
   fun:__pthread_once_slow
   fun:_ZN4llvm27initializeLiveVariablesPassERNS_12PassRegistryE
   fun:_ZN4llvm17initializeCodeGenERNS_12PassRegistryE
   fun:_ZN4llvm16TargetPassConfigC1ERNS_17LLVMTargetMachineERNS_6legacy15PassManagerBaseE
   obj:/usr/lib/x86_64-linux-gnu/libLLVM-11.so.1
   fun:_ZN4llvm17LLVMTargetMachine19addPassesToEmitFileERNS_6legacy15PassManagerBaseERNS_17raw_pwrite_streamEPS4_NS_15CodeGenFileTypeEbPNS_28MachineModuleInfoWrapperPassE
   obj:/usr/lib/x86_64-linux-gnu/dri/radeonsi_dri.so
   obj:/usr/lib/x86_64-linux-gnu/dri/radeonsi_dri.so
   obj:/usr/lib/x86_64-linux-gnu/dri/radeonsi_dri.so
   obj:/usr/lib/x86_64-linux-gnu/dri/radeonsi_dri.so
}
{
   d5cf7b5ddbb3871c3cb71b700331b6fb
   Memcheck:Leak
   match-leak-kinds: reachable
   fun:_Znwm
   obj:/usr/lib/x86_64-linux-gnu/libLLVM-11.so.1
   fun:_ZNK4llvm17ManagedStaticBase21RegisterManagedStaticEPFPvvEPFvS1_E
   obj:/usr/lib/x86_64-linux-gnu/libLLVM-11.so.1
   fun:call_init.part.0
   fun:call_init
   fun:_dl_init
   fun:_dl_catch_exception
   fun:dl_open_worker
   fun:_dl_catch_exception
   fun:_dl_open
   fun:dlopen_doit
   fun:_dl_catch_exception
}
{
   e397bebf4bd61c53365659f01f61ba98
   Memcheck:Leak
   match-leak-kinds: reachable
   fun:_Znwm
   obj:/usr/lib/x86_64-linux-gnu/libLLVM-11.so.1
   fun:__pthread_once_slow
   fun:_ZN4llvm28initializeStackProtectorPassERNS_12PassRegistryE
   fun:_ZN4llvm17initializeCodeGenERNS_12PassRegistryE
   fun:_ZN4llvm16TargetPassConfigC1ERNS_17LLVMTargetMachineERNS_6legacy15PassManagerBaseE
   obj:/usr/lib/x86_64-linux-gnu/libLLVM-11.so.1
   fun:_ZN4llvm17LLVMTargetMachine19addPassesToEmitFileERNS_6legacy15PassManagerBaseERNS_17raw_pwrite_streamEPS4_NS_15CodeGenFileTypeEbPNS_28MachineModuleInfoWrapperPassE
   obj:/usr/lib/x86_64-linux-gnu/dri/radeonsi_dri.so
   obj:/usr/lib/x86_64-linux-gnu/dri/radeonsi_dri.so
   obj:/usr/lib/x86_64-linux-gnu/dri/radeonsi_dri.so
   obj:/usr/lib/x86_64-linux-gnu/dri/radeonsi_dri.so
}
{
   6e1eb31fa3cef965263e37ca2d52242f
   Memcheck:Leak
   match-leak-kinds: reachable
   fun:malloc
   fun:_XlcSetConverter
   fun:_XlcAddUtf8Converters
   fun:_XlcUtf8Loader
   fun:_XOpenLC
   fun:XmbTextListToTextProperty
   fun:_ZN10QXcbWindow14setWindowTitleEPK14QXcbConnectionjRK7QString
   fun:_ZN14QXcbConnection19getQtSelectionOwnerEv
   obj:/usr/lib/x86_64-linux-gnu/libQt6XcbQpa.so.6.2.4
   fun:_ZN14QXcbConnection17initializeScreensEv
   fun:_ZN14QXcbConnectionC1EP19QXcbNativeInterfacebjPKc
   fun:_ZN15QXcbIntegrationC1ERK5QListI7QStringERiPPc
}
{
   54eb4ecb91109617b55223963b2506b5
   Memcheck:Leak
   match-leak-kinds: reachable
   fun:malloc
   fun:_XlcAddCT
   fun:_XlcInitCTInfo
   obj:/usr/lib/x86_64-linux-gnu/libX11.so.6.4.0
   obj:/usr/lib/x86_64-linux-gnu/libX11.so.6.4.0
   fun:_XlcCreateLC
   fun:_XlcUtf8Loader
   fun:_XOpenLC
   fun:XmbTextListToTextProperty
   fun:_ZN10QXcbWindow14setWindowTitleEPK14QXcbConnectionjRK7QString
   fun:_ZN14QXcbConnection19getQtSelectionOwnerEv
   obj:/usr/lib/x86_64-linux-gnu/libQt6XcbQpa.so.6.2.4
}
{
   1f3fc336f4a03684fccc0b83df5e4df4
   Memcheck:Leak
   match-leak-kinds: reachable
   fun:_Znwm
   obj:/usr/lib/x86_64-linux-gnu/libLLVM-11.so.1
   fun:_ZN4llvm12PassRegistry12registerPassERKNS_8PassInfoEb
   obj:/usr/lib/x86_64-linux-gnu/libLLVM-11.so.1
   fun:__pthread_once_slow
   fun:_ZN4llvm27initializeLiveVariablesPassERNS_12PassRegistryE
   fun:_ZN4llvm17initializeCodeGenERNS_12PassRegistryE
   fun:_ZN4llvm16TargetPassConfigC1ERNS_17LLVMTargetMachineERNS_6legacy15PassManagerBaseE
   obj:/usr/lib/x86_64-linux-gnu/libLLVM-11.so.1
   fun:_ZN4llvm17LLVMTargetMachine19addPassesToEmitFileERNS_6legacy15PassManagerBaseERNS_17raw_pwrite_streamEPS4_NS_15CodeGenFileTypeEbPNS_28MachineModuleInfoWrapperPassE
   obj:/usr/lib/x86_64-linux-gnu/dri/radeonsi_dri.so
   obj:/usr/lib/x86_64-linux-gnu/dri/radeonsi_dri.so
}
{
   b196f56d2e3b458e1fba31d8c5cb92a7
   Memcheck:Leak
   match-leak-kinds: reachable
   fun:realloc
   obj:/usr/lib/x86_64-linux-gnu/libdbus-1.so.3.19.13
   fun:_dbus_string_copy_len
   obj:/usr/lib/x86_64-linux-gnu/libdbus-1.so.3.19.13
   fun:_dbus_message_loader_queue_messages
   obj:/usr/lib/x86_64-linux-gnu/libdbus-1.so.3.19.13
   obj:/usr/lib/x86_64-linux-gnu/libdbus-1.so.3.19.13
   obj:/usr/lib/x86_64-linux-gnu/libdbus-1.so.3.19.13
   obj:/usr/lib/x86_64-linux-gnu/libdbus-1.so.3.19.13
   obj:/usr/lib/x86_64-linux-gnu/libdbus-1.so.3.19.13
   obj:/usr/lib/x86_64-linux-gnu/libdbus-1.so.3.19.13
   obj:/usr/lib/x86_64-linux-gnu/libdbus-1.so.3.19.13
}
{
   a5b63f80617d4e9eb5e4dc997084fba0
   Memcheck:Leak
   match-leak-kinds: reachable
   fun:malloc
   fun:strdup
   fun:_dl_map_object
   fun:dl_open_worker
   fun:_dl_catch_exception
   fun:_dl_open
   fun:dlopen_doit
   fun:_dl_catch_exception
   fun:_dl_catch_error
   fun:_dlerror_run
   fun:dlopen@@GLIBC_2.2.5
   obj:*
}
{
   5f3d679d9de685b0e5ebc11b984f652b
   Memcheck:Leak
   match-leak-kinds: reachable
   fun:malloc
   fun:UDataMemory_createNewInstance_67
   obj:/usr/lib/x86_64-linux-gnu/libicuuc.so.67.1
   obj:/usr/lib/x86_64-linux-gnu/libicuuc.so.67.1
   fun:res_load_67
   obj:/usr/lib/x86_64-linux-gnu/libicuuc.so.67.1
   obj:/usr/lib/x86_64-linux-gnu/libicuuc.so.67.1
   fun:_ZN6icu_6715CollationLoader14loadFromLocaleER10UErrorCode
   fun:_ZNK6icu_6712UnifiedCache4_getERKNS_12CacheKeyBaseERPKNS_12SharedObjectEPKvR10UErrorCode
   fun:_ZN6icu_6715CollationLoader13getCacheEntryER10UErrorCode
   fun:_ZN6icu_6715CollationLoader13loadTailoringERKNS_6LocaleER10UErrorCode
   fun:_ZN6icu_678Collator12makeInstanceERKNS_6LocaleER10UErrorCode
}
{
   4499480ab242dec5892354f32fdfcd4f
   Memcheck:Leak
   match-leak-kinds: reachable
   fun:_Znwm
   obj:/usr/lib/x86_64-linux-gnu/libLLVM-11.so.1
   fun:__pthread_once_slow
   fun:_ZN4llvm48initializePreISelIntrinsicLoweringLegacyPassPassERNS_12PassRegistryE
   fun:_ZN4llvm17initializeCodeGenERNS_12PassRegistryE
   fun:_ZN4llvm16TargetPassConfigC1ERNS_17LLVMTargetMachineERNS_6legacy15PassManagerBaseE
   obj:/usr/lib/x86_64-linux-gnu/libLLVM-11.so.1
   fun:_ZN4llvm17LLVMTargetMachine19addPassesToEmitFileERNS_6legacy15PassManagerBaseERNS_17raw_pwrite_streamEPS4_NS_15CodeGenFileTypeEbPNS_28MachineModuleInfoWrapperPassE
   obj:/usr/lib/x86_64-linux-gnu/dri/radeonsi_dri.so
   obj:/usr/lib/x86_64-linux-gnu/dri/radeonsi_dri.so
   obj:/usr/lib/x86_64-linux-gnu/dri/radeonsi_dri.so
   obj:/usr/lib/x86_64-linux-gnu/dri/radeonsi_dri.so
}
{
   834017e8b48a2a7991dd5d8c0ff4098b
   Memcheck:Leak
   match-leak-kinds: reachable
   fun:malloc
   obj:/usr/lib/x86_64-linux-gnu/libgomp.so.1.0.0
   obj:/usr/lib/x86_64-linux-gnu/libgomp.so.1.0.0
   obj:/usr/lib/x86_64-linux-gnu/libgomp.so.1.0.0
   fun:call_init.part.0
   fun:call_init
   fun:_dl_init
   obj:/usr/lib/x86_64-linux-gnu/ld-2.31.so
}
{
   205e548ec5e29b1643ba665b84f5a233
   Memcheck:Leak
   match-leak-kinds: reachable
   fun:_Znwm
   obj:/usr/lib/x86_64-linux-gnu/libLLVM-11.so.1
   fun:__pthread_once_slow
   fun:_ZN4llvm26createConstantHoistingPassEv
   fun:_ZN4llvm16TargetPassConfig11addIRPassesEv
   obj:/usr/lib/x86_64-linux-gnu/libLLVM-11.so.1
   fun:_ZN4llvm16TargetPassConfig13addISelPassesEv
   fun:_ZN4llvm17LLVMTargetMachine19addPassesToEmitFileERNS_6legacy15PassManagerBaseERNS_17raw_pwrite_streamEPS4_NS_15CodeGenFileTypeEbPNS_28MachineModuleInfoWrapperPassE
   obj:/usr/lib/x86_64-linux-gnu/dri/radeonsi_dri.so
   obj:/usr/lib/x86_64-linux-gnu/dri/radeonsi_dri.so
   obj:/usr/lib/x86_64-linux-gnu/dri/radeonsi_dri.so
   obj:/usr/lib/x86_64-linux-gnu/dri/radeonsi_dri.so
}
{
   7158409f59ca3420817f07b6162dc30e
   Memcheck:Leak
   match-leak-kinds: reachable
   fun:calloc
   fun:g_malloc0
   obj:/usr/lib/x86_64-linux-gnu/libglib-2.0.so.0.6600.8
   fun:g_hash_table_new_full
   obj:/usr/lib/x86_64-linux-gnu/libglib-2.0.so.0.6600.8
   fun:call_init.part.0
   fun:call_init
   fun:_dl_init
   obj:/usr/lib/x86_64-linux-gnu/ld-2.31.so
}
{
   1513817649cfbe6861352eb366c0cf68
   Memcheck:Leak
   match-leak-kinds: reachable
   fun:malloc
   obj:/usr/lib/x86_64-linux-gnu/libX11.so.6.4.0
   fun:_XmbTextListToTextProperty
   fun:_ZN10QXcbWindow14setWindowTitleEPK14QXcbConnectionjRK7QString
   fun:_ZN14QWidgetPrivate21setWindowTitle_helperERK7QString
   fun:_ZN14QWidgetPrivate24setWindowModified_helperEv
   fun:_ZN14QWidgetPrivate6createEv
   fun:_ZN7QWidget6createEybb
   fun:_ZN14QWidgetPrivate10setVisibleEb
   obj:/usr/lib/x86_64-linux-gnu/libQt6Widgets.so.6.2.4
   fun:_ZN5QMenu5popupERK6QPointP7QAction
   obj:/usr/lib/x86_64-linux-gnu/libQt6Widgets.so.6.2.4
}
{
   5a28ca20e80dddfb7d19e9844e64360e
   Memcheck:Leak
   match-leak-kinds: reachable
   fun:_Znwm
   obj:/usr/lib/x86_64-linux-gnu/libLLVM-11.so.1
   fun:__pthread_once_slow
   fun:_ZN4llvm34initializeIndirectBrExpandPassPassERNS_12PassRegistryE
   fun:_ZN4llvm17initializeCodeGenERNS_12PassRegistryE
   fun:_ZN4llvm16TargetPassConfigC1ERNS_17LLVMTargetMachineERNS_6legacy15PassManagerBaseE
   obj:/usr/lib/x86_64-linux-gnu/libLLVM-11.so.1
   fun:_ZN4llvm17LLVMTargetMachine19addPassesToEmitFileERNS_6legacy15PassManagerBaseERNS_17raw_pwrite_streamEPS4_NS_15CodeGenFileTypeEbPNS_28MachineModuleInfoWrapperPassE
   obj:/usr/lib/x86_64-linux-gnu/dri/radeonsi_dri.so
   obj:/usr/lib/x86_64-linux-gnu/dri/radeonsi_dri.so
   obj:/usr/lib/x86_64-linux-gnu/dri/radeonsi_dri.so
   obj:/usr/lib/x86_64-linux-gnu/dri/radeonsi_dri.so
}
{
   1a09e7876960a822ac59a7b79a6e427f
   Memcheck:Leak
   match-leak-kinds: reachable
   fun:_Znwm
   obj:/usr/lib/x86_64-linux-gnu/libLLVM-11.so.1
   fun:__pthread_once_slow
   fun:_ZN4llvm46initializeBranchProbabilityInfoWrapperPassPassERNS_12PassRegistryE
   obj:/usr/lib/x86_64-linux-gnu/libLLVM-11.so.1
   fun:__pthread_once_slow
   fun:_ZN4llvm43initializeBlockFrequencyInfoWrapperPassPassERNS_12PassRegistryE
   obj:/usr/lib/x86_64-linux-gnu/libLLVM-11.so.1
   fun:__pthread_once_slow
   fun:_ZN4llvm26createConstantHoistingPassEv
   fun:_ZN4llvm16TargetPassConfig11addIRPassesEv
   obj:/usr/lib/x86_64-linux-gnu/libLLVM-11.so.1
}
{
   0e87b2cd432513bcfa4c4369acaa19ea
   Memcheck:Leak
   match-leak-kinds: reachable
   fun:malloc
   fun:g_malloc
   fun:g_slice_alloc
   fun:g_hash_table_new_full
   obj:/usr/lib/x86_64-linux-gnu/libglib-2.0.so.0.6600.8
   fun:call_init.part.0
   fun:call_init
   fun:_dl_init
   obj:/usr/lib/x86_64-linux-gnu/ld-2.31.so
}
{
   193b11048e9b3f0e114b6fecaa1d8f6f
   Memcheck:Leak
   match-leak-kinds: reachable
   fun:_Znwm
   obj:/usr/lib/x86_64-linux-gnu/libLLVM-11.so.1
   fun:__pthread_once_slow
   fun:_ZN4llvm28MachineModuleInfoWrapperPassC1EPKNS_17LLVMTargetMachineE
   fun:_ZN4llvm17LLVMTargetMachine19addPassesToEmitFileERNS_6legacy15PassManagerBaseERNS_17raw_pwrite_streamEPS4_NS_15CodeGenFileTypeEbPNS_28MachineModuleInfoWrapperPassE
   obj:/usr/lib/x86_64-linux-gnu/dri/radeonsi_dri.so
   obj:/usr/lib/x86_64-linux-gnu/dri/radeonsi_dri.so
   obj:/usr/lib/x86_64-linux-gnu/dri/radeonsi_dri.so
   obj:/usr/lib/x86_64-linux-gnu/dri/radeonsi_dri.so
   obj:/usr/lib/x86_64-linux-gnu/dri/radeonsi_dri.so
   fun:start_thread
   fun:clone
}
{
   2982b6e9edb43e347e6fd5623483aa68
   Memcheck:Leak
   match-leak-kinds: reachable
   fun:calloc
   fun:_dl_new_object
   fun:_dl_map_object_from_fd
   fun:_dl_map_object
   fun:dl_open_worker
   fun:_dl_catch_exception
   fun:_dl_open
   fun:dlopen_doit
   fun:_dl_catch_exception
   fun:_dl_catch_error
   fun:_dlerror_run
   fun:dlopen@@GLIBC_2.2.5
}
{
   0ef04bcf2a3d25cdf9453c57f91f504f
   Memcheck:Leak
   match-leak-kinds: reachable
   fun:_Znwm
   obj:/usr/lib/x86_64-linux-gnu/libLLVM-11.so.1
   fun:_ZN4llvm12PassRegistry12registerPassERKNS_8PassInfoEb
   obj:/usr/lib/x86_64-linux-gnu/libLLVM-11.so.1
   fun:__pthread_once_slow
   fun:_ZN4llvm20initializeDeLICMPassERNS_12PassRegistryE
   fun:_ZN5polly21initializePollyPassesERN4llvm12PassRegistryE
   obj:/usr/lib/x86_64-linux-gnu/libLLVM-11.so.1
   fun:call_init.part.0
   fun:call_init
   fun:_dl_init
   fun:_dl_catch_exception
   fun:dl_open_worker
}
{
   f63a2f8b4a10539da2a20b201e479874
   Memcheck:Leak
   match-leak-kinds: reachable
   fun:malloc
   fun:_ZN6icu_677UMemorynwEm
   fun:_ZN6icu_6719CollationDataReader4readEPKNS_18CollationTailoringEPKhiRS1_R10UErrorCode
   fun:_ZN6icu_6713CollationRoot4loadER10UErrorCode
   fun:_ZN6icu_6713CollationRoot17getRootCacheEntryER10UErrorCode
   fun:_ZN6icu_6715CollationLoader13loadTailoringERKNS_6LocaleER10UErrorCode
   fun:_ZN6icu_678Collator12makeInstanceERKNS_6LocaleER10UErrorCode
   fun:_ZN6icu_678Collator14createInstanceERKNS_6LocaleER10UErrorCode
   fun:ucol_open_67
   obj:/usr/lib/x86_64-linux-gnu/libQt6Core.so.6.2.4
   fun:_ZN23QFileSystemModelPrivate12sortChildrenEiRK11QModelIndex
   fun:_ZN16QFileSystemModel4sortEiN2Qt9SortOrderE
}
{
   da3aa41065cc1140530023db86061e73
   Memcheck:Leak
   match-leak-kinds: reachable
   fun:_Znwm
   obj:/usr/lib/x86_64-linux-gnu/libLLVM-11.so.1
   fun:__pthread_once_slow
   fun:_ZN4llvm26initializeRegAllocFastPassERNS_12PassRegistryE
   fun:_ZN4llvm17initializeCodeGenERNS_12PassRegistryE
   fun:_ZN4llvm16TargetPassConfigC1ERNS_17LLVMTargetMachineERNS_6legacy15PassManagerBaseE
   obj:/usr/lib/x86_64-linux-gnu/libLLVM-11.so.1
   fun:_ZN4llvm17LLVMTargetMachine19addPassesToEmitFileERNS_6legacy15PassManagerBaseERNS_17raw_pwrite_streamEPS4_NS_15CodeGenFileTypeEbPNS_28MachineModuleInfoWrapperPassE
   obj:/usr/lib/x86_64-linux-gnu/dri/radeonsi_dri.so
   obj:/usr/lib/x86_64-linux-gnu/dri/radeonsi_dri.so
   obj:/usr/lib/x86_64-linux-gnu/dri/radeonsi_dri.so
   obj:/usr/lib/x86_64-linux-gnu/dri/radeonsi_dri.so
}
{
   38035ac88ace6d28de891e4e350859ef
   Memcheck:Leak
   match-leak-kinds: reachable
   fun:_Znwm
   obj:/usr/lib/x86_64-linux-gnu/libLLVM-11.so.1
   fun:__pthread_once_slow
   fun:_ZN4llvm29initializeVirtRegRewriterPassERNS_12PassRegistryE
   fun:_ZN4llvm17initializeCodeGenERNS_12PassRegistryE
   fun:_ZN4llvm16TargetPassConfigC1ERNS_17LLVMTargetMachineERNS_6legacy15PassManagerBaseE
   obj:/usr/lib/x86_64-linux-gnu/libLLVM-11.so.1
   fun:_ZN4llvm17LLVMTargetMachine19addPassesToEmitFileERNS_6legacy15PassManagerBaseERNS_17raw_pwrite_streamEPS4_NS_15CodeGenFileTypeEbPNS_28MachineModuleInfoWrapperPassE
   obj:/usr/lib/x86_64-linux-gnu/dri/radeonsi_dri.so
   obj:/usr/lib/x86_64-linux-gnu/dri/radeonsi_dri.so
   obj:/usr/lib/x86_64-linux-gnu/dri/radeonsi_dri.so
   obj:/usr/lib/x86_64-linux-gnu/dri/radeonsi_dri.so
}
{
   cc63e20e666949899686af7b251afb00
   Memcheck:Leak
   match-leak-kinds: reachable
   fun:_Znwm
   obj:/usr/lib/x86_64-linux-gnu/libLLVM-11.so.1
   fun:_ZN4llvm12PassRegistry12registerPassERKNS_8PassInfoEb
   obj:/usr/lib/x86_64-linux-gnu/libLLVM-11.so.1
   fun:__pthread_once_slow
   fun:_ZN4llvm39initializeDependenceInfoWrapperPassPassERNS_12PassRegistryE
   fun:_ZN5polly21initializePollyPassesERN4llvm12PassRegistryE
   obj:/usr/lib/x86_64-linux-gnu/libLLVM-11.so.1
   fun:call_init.part.0
   fun:call_init
   fun:_dl_init
   fun:_dl_catch_exception
   fun:dl_open_worker
}
{
   f6319296b53738d0ec441e7a45e46feb
   Memcheck:Leak
   match-leak-kinds: reachable
   fun:_Znwm
   obj:/usr/lib/x86_64-linux-gnu/libLLVM-11.so.1
   fun:__pthread_once_slow
   fun:_ZN4llvm38initializeRenameIndependentSubregsPassERNS_12PassRegistryE
   fun:_ZN4llvm17initializeCodeGenERNS_12PassRegistryE
   fun:_ZN4llvm16TargetPassConfigC1ERNS_17LLVMTargetMachineERNS_6legacy15PassManagerBaseE
   obj:/usr/lib/x86_64-linux-gnu/libLLVM-11.so.1
   fun:_ZN4llvm17LLVMTargetMachine19addPassesToEmitFileERNS_6legacy15PassManagerBaseERNS_17raw_pwrite_streamEPS4_NS_15CodeGenFileTypeEbPNS_28MachineModuleInfoWrapperPassE
   obj:/usr/lib/x86_64-linux-gnu/dri/radeonsi_dri.so
   obj:/usr/lib/x86_64-linux-gnu/dri/radeonsi_dri.so
   obj:/usr/lib/x86_64-linux-gnu/dri/radeonsi_dri.so
   obj:/usr/lib/x86_64-linux-gnu/dri/radeonsi_dri.so
}
{
   985cc78328246f0f35f0eff4528536c2
   Memcheck:Leak
   match-leak-kinds: reachable
   fun:_Znwm
   obj:/usr/lib/x86_64-linux-gnu/libLLVM-11.so.1
   fun:_ZN4llvm12PassRegistry12registerPassERKNS_8PassInfoEb
   obj:/usr/lib/x86_64-linux-gnu/libLLVM-11.so.1
   fun:__pthread_once_slow
   fun:_ZN4llvm31initializeEarlyIfPredicatorPassERNS_12PassRegistryE
   fun:_ZN4llvm17initializeCodeGenERNS_12PassRegistryE
   fun:_ZN4llvm16TargetPassConfigC1ERNS_17LLVMTargetMachineERNS_6legacy15PassManagerBaseE
   obj:/usr/lib/x86_64-linux-gnu/libLLVM-11.so.1
   fun:_ZN4llvm17LLVMTargetMachine19addPassesToEmitFileERNS_6legacy15PassManagerBaseERNS_17raw_pwrite_streamEPS4_NS_15CodeGenFileTypeEbPNS_28MachineModuleInfoWrapperPassE
   obj:/usr/lib/x86_64-linux-gnu/dri/radeonsi_dri.so
   obj:/usr/lib/x86_64-linux-gnu/dri/radeonsi_dri.so
}
{
   6118ddc5dc571013bc3270aaed23e9e2
   Memcheck:Leak
   match-leak-kinds: reachable
   fun:malloc
   fun:strdup
   obj:/usr/lib/x86_64-linux-gnu/libX11.so.6.4.0
   obj:/usr/lib/x86_64-linux-gnu/libX11.so.6.4.0
   fun:_XlcCreateLocaleDataBase
   obj:/usr/lib/x86_64-linux-gnu/libX11.so.6.4.0
   obj:/usr/lib/x86_64-linux-gnu/libX11.so.6.4.0
   fun:_XlcCreateLC
   fun:_XlcUtf8Loader
   fun:_XOpenLC
   fun:XmbTextListToTextProperty
   fun:_ZN10QXcbWindow14setWindowTitleEPK14QXcbConnectionjRK7QString
}
{
   cb705553cf7059d8977979c5127fe008
   Memcheck:Leak
   match-leak-kinds: reachable
   fun:_Znwm
   obj:/usr/lib/x86_64-linux-gnu/libLLVM-11.so.1
   fun:__pthread_once_slow
   fun:_ZN4llvm40initializeDeadMachineInstructionElimPassERNS_12PassRegistryE
   fun:_ZN4llvm17initializeCodeGenERNS_12PassRegistryE
   fun:_ZN4llvm16TargetPassConfigC1ERNS_17LLVMTargetMachineERNS_6legacy15PassManagerBaseE
   obj:/usr/lib/x86_64-linux-gnu/libLLVM-11.so.1
   fun:_ZN4llvm17LLVMTargetMachine19addPassesToEmitFileERNS_6legacy15PassManagerBaseERNS_17raw_pwrite_streamEPS4_NS_15CodeGenFileTypeEbPNS_28MachineModuleInfoWrapperPassE
   obj:/usr/lib/x86_64-linux-gnu/dri/radeonsi_dri.so
   obj:/usr/lib/x86_64-linux-gnu/dri/radeonsi_dri.so
   obj:/usr/lib/x86_64-linux-gnu/dri/radeonsi_dri.so
   obj:/usr/lib/x86_64-linux-gnu/dri/radeonsi_dri.so
}
{
   006aa66663683b5b6644093f963d3725
   Memcheck:Leak
   match-leak-kinds: reachable
   fun:malloc
   fun:_XrmInternalStringToQuark
   fun:_XlcGetCharSet
   fun:_XlcAddCT
   fun:_XlcInitCTInfo
   obj:/usr/lib/x86_64-linux-gnu/libX11.so.6.4.0
   obj:/usr/lib/x86_64-linux-gnu/libX11.so.6.4.0
   fun:_XlcCreateLC
   fun:_XlcUtf8Loader
   fun:_XOpenLC
   fun:XmbTextListToTextProperty
   fun:_ZN10QXcbWindow14setWindowTitleEPK14QXcbConnectionjRK7QString
}
{
   e08f5a54a7d8ee54275a21efa46ec32e
   Memcheck:Leak
   match-leak-kinds: reachable
   fun:malloc
   fun:utrie2_openFromSerialized_67
   fun:_ZN6icu_6719CollationDataReader4readEPKNS_18CollationTailoringEPKhiRS1_R10UErrorCode
   fun:_ZN6icu_6713CollationRoot4loadER10UErrorCode
   fun:_ZN6icu_6713CollationRoot17getRootCacheEntryER10UErrorCode
   fun:_ZN6icu_6715CollationLoader13loadTailoringERKNS_6LocaleER10UErrorCode
   fun:_ZN6icu_678Collator12makeInstanceERKNS_6LocaleER10UErrorCode
   fun:_ZN6icu_678Collator14createInstanceERKNS_6LocaleER10UErrorCode
   fun:ucol_open_67
   obj:/usr/lib/x86_64-linux-gnu/libQt6Core.so.6.2.4
   fun:_ZN23QFileSystemModelPrivate12sortChildrenEiRK11QModelIndex
   fun:_ZN16QFileSystemModel4sortEiN2Qt9SortOrderE
}
{
   356b07624bbc14ca5a9ccaa1da83ba42
   Memcheck:Leak
   match-leak-kinds: reachable
   fun:_Znwm
   obj:/usr/lib/x86_64-linux-gnu/libLLVM-11.so.1
   fun:_ZN4llvm12PassRegistry12registerPassERKNS_8PassInfoEb
   obj:/usr/lib/x86_64-linux-gnu/libLLVM-11.so.1
   fun:__pthread_once_slow
   fun:_ZN4llvm42initializeMachineBranchProbabilityInfoPassERNS_12PassRegistryE
   obj:/usr/lib/x86_64-linux-gnu/libLLVM-11.so.1
   fun:__pthread_once_slow
   fun:_ZN4llvm39initializeMachineBlockFrequencyInfoPassERNS_12PassRegistryE
   obj:/usr/lib/x86_64-linux-gnu/libLLVM-11.so.1
   fun:__pthread_once_slow
   fun:_ZN4llvm27initializeRegBankSelectPassERNS_12PassRegistryE
}
{
   2bc52847570fd5c9eb3511125d40479c
   Memcheck:Leak
   match-leak-kinds: reachable
   fun:_Znwm
   obj:/usr/lib/x86_64-linux-gnu/libLLVM-11.so.1
   fun:__pthread_once_slow
   fun:_ZN4llvm22initializeRAGreedyPassERNS_12PassRegistryE
   fun:_ZN4llvm17initializeCodeGenERNS_12PassRegistryE
   fun:_ZN4llvm16TargetPassConfigC1ERNS_17LLVMTargetMachineERNS_6legacy15PassManagerBaseE
   obj:/usr/lib/x86_64-linux-gnu/libLLVM-11.so.1
   fun:_ZN4llvm17LLVMTargetMachine19addPassesToEmitFileERNS_6legacy15PassManagerBaseERNS_17raw_pwrite_streamEPS4_NS_15CodeGenFileTypeEbPNS_28MachineModuleInfoWrapperPassE
   obj:/usr/lib/x86_64-linux-gnu/dri/radeonsi_dri.so
   obj:/usr/lib/x86_64-linux-gnu/dri/radeonsi_dri.so
   obj:/usr/lib/x86_64-linux-gnu/dri/radeonsi_dri.so
   obj:/usr/lib/x86_64-linux-gnu/dri/radeonsi_dri.so
}
{
   3e5a304d84e42af389c1c7638d3a48af
   Memcheck:Leak
   match-leak-kinds: reachable
   fun:_Znwm
   obj:/usr/lib/x86_64-linux-gnu/libLLVM-11.so.1
   fun:__pthread_once_slow
   fun:_ZN4llvm39initializeMachineBlockFrequencyInfoPassERNS_12PassRegistryE
   obj:/usr/lib/x86_64-linux-gnu/libLLVM-11.so.1
   fun:__pthread_once_slow
   fun:_ZN4llvm27initializeRegBankSelectPassERNS_12PassRegistryE
   fun:_ZN4llvm20initializeGlobalISelERNS_12PassRegistryE
   fun:LLVMInitializeAMDGPUTarget
   obj:/usr/lib/x86_64-linux-gnu/dri/radeonsi_dri.so
   fun:__pthread_once_slow
   obj:/usr/lib/x86_64-linux-gnu/dri/radeonsi_dri.so
}
{
   a511d2afe33782611ce494302e449be6
   Memcheck:Leak
   match-leak-kinds: reachable
   fun:_Znwm
   obj:/usr/lib/x86_64-linux-gnu/libLLVM-11.so.1
   fun:__pthread_once_slow
   fun:_ZN4llvm26createMergeICmpsLegacyPassEv
   fun:_ZN4llvm16TargetPassConfig11addIRPassesEv
   obj:/usr/lib/x86_64-linux-gnu/libLLVM-11.so.1
   fun:_ZN4llvm16TargetPassConfig13addISelPassesEv
   fun:_ZN4llvm17LLVMTargetMachine19addPassesToEmitFileERNS_6legacy15PassManagerBaseERNS_17raw_pwrite_streamEPS4_NS_15CodeGenFileTypeEbPNS_28MachineModuleInfoWrapperPassE
   obj:/usr/lib/x86_64-linux-gnu/dri/radeonsi_dri.so
   obj:/usr/lib/x86_64-linux-gnu/dri/radeonsi_dri.so
   obj:/usr/lib/x86_64-linux-gnu/dri/radeonsi_dri.so
   obj:/usr/lib/x86_64-linux-gnu/dri/radeonsi_dri.so
}
{
   e181154baf034e280b49ae3af631e721
   Memcheck:Leak
   match-leak-kinds: indirect
   fun:malloc
   fun:_ZN10QArrayData8allocateEPPS_xxxNS_16AllocationOptionE
   obj:/usr/lib/x86_64-linux-gnu/libQt6Core.so.6.2.4
   obj:/usr/lib/x86_64-linux-gnu/libQt6Core.so.6.2.4
   obj:/usr/lib/x86_64-linux-gnu/libQt6Core.so.6.2.4
   fun:_ZN4QDirC1ERK7QString
   fun:_ZN6Window16createScreenshotEv
   fun:_ZN6Window18qt_static_metacallEP7QObjectN11QMetaObject4CallEiPPv
   obj:/usr/lib/x86_64-linux-gnu/libQt6Core.so.6.2.4
   obj:/usr/lib/x86_64-linux-gnu/libQt6Widgets.so.6.2.4
   obj:/usr/lib/x86_64-linux-gnu/libQt6Widgets.so.6.2.4
   fun:_ZN15QAbstractButton17mouseReleaseEventEP11QMouseEvent
}
{
   e93c106d902b679a6bf839dd66c6bfc9
   Memcheck:Leak
   match-leak-kinds: reachable
   fun:_Znwm
   obj:/usr/lib/x86_64-linux-gnu/libLLVM-11.so.1
   fun:__pthread_once_slow
   fun:_ZN4llvm41initializeMemoryDependenceWrapperPassPassERNS_12PassRegistryE
   obj:/usr/lib/x86_64-linux-gnu/libLLVM-11.so.1
   fun:__pthread_once_slow
   obj:/usr/lib/x86_64-linux-gnu/libLLVM-11.so.1
   fun:LLVMInitializeAMDGPUTarget
   obj:/usr/lib/x86_64-linux-gnu/dri/radeonsi_dri.so
   fun:__pthread_once_slow
   obj:/usr/lib/x86_64-linux-gnu/dri/radeonsi_dri.so
   obj:/usr/lib/x86_64-linux-gnu/dri/radeonsi_dri.so
}
{
   2c0df14301dd700a15075e9de7e7231c
   Memcheck:Leak
   match-leak-kinds: reachable
   fun:_Znwm
   obj:/usr/lib/x86_64-linux-gnu/libLLVM-11.so.1
   fun:_ZN4llvm12PassRegistry12registerPassERKNS_8PassInfoEb
   obj:/usr/lib/x86_64-linux-gnu/libLLVM-11.so.1
   fun:__pthread_once_slow
   fun:_ZN4llvm29initializeMachineLoopInfoPassERNS_12PassRegistryE
   obj:/usr/lib/x86_64-linux-gnu/libLLVM-11.so.1
   fun:__pthread_once_slow
   fun:_ZN4llvm39initializeMachineBlockFrequencyInfoPassERNS_12PassRegistryE
   obj:/usr/lib/x86_64-linux-gnu/libLLVM-11.so.1
   fun:__pthread_once_slow
   fun:_ZN4llvm27initializeRegBankSelectPassERNS_12PassRegistryE
}
{
   b64987109802da25fd886383b903d393
   Memcheck:Leak
   match-leak-kinds: reachable
   fun:_Znwm
   obj:/usr/lib/x86_64-linux-gnu/libLLVM-11.so.1
   fun:_ZN4llvm12PassRegistry12registerPassERKNS_8PassInfoEb
   obj:/usr/lib/x86_64-linux-gnu/libLLVM-11.so.1
   fun:__pthread_once_slow
   fun:_ZN4llvm26initializeAtomicExpandPassERNS_12PassRegistryE
   fun:_ZN4llvm17initializeCodeGenERNS_12PassRegistryE
   fun:_ZN4llvm16TargetPassConfigC1ERNS_17LLVMTargetMachineERNS_6legacy15PassManagerBaseE
   obj:/usr/lib/x86_64-linux-gnu/libLLVM-11.so.1
   fun:_ZN4llvm17LLVMTargetMachine19addPassesToEmitFileERNS_6legacy15PassManagerBaseERNS_17raw_pwrite_streamEPS4_NS_15CodeGenFileTypeEbPNS_28MachineModuleInfoWrapperPassE
   obj:/usr/lib/x86_64-linux-gnu/dri/radeonsi_dri.so
   obj:/usr/lib/x86_64-linux-gnu/dri/radeonsi_dri.so
}
{
   55cf074e6899dbab6f47ddd78e4d7df7
   Memcheck:Leak
   match-leak-kinds: reachable
   fun:malloc
   fun:_XlcSetConverter
   fun:_XlcUtf8Loader
   fun:_XOpenLC
   fun:XmbTextListToTextProperty
   fun:_ZN10QXcbWindow14setWindowTitleEPK14QXcbConnectionjRK7QString
   fun:_ZN14QXcbConnection19getQtSelectionOwnerEv
   obj:/usr/lib/x86_64-linux-gnu/libQt6XcbQpa.so.6.2.4
   fun:_ZN14QXcbConnection17initializeScreensEv
   fun:_ZN14QXcbConnectionC1EP19QXcbNativeInterfacebjPKc
   fun:_ZN15QXcbIntegrationC1ERK5QListI7QStringERiPPc
   obj:/usr/lib/x86_64-linux-gnu/qt6/plugins/platforms/libqxcb.so
}
{
   c3f6a9ca4e7a4adddf51aaaf8ad0a736
   Memcheck:Leak
   match-leak-kinds: reachable
   fun:_Znwm
   obj:/usr/lib/x86_64-linux-gnu/libLLVM-11.so.1
   fun:__pthread_once_slow
   fun:_ZN4llvm24initializeVirtRegMapPassERNS_12PassRegistryE
   obj:/usr/lib/x86_64-linux-gnu/libLLVM-11.so.1
   fun:__pthread_once_slow
   obj:/usr/lib/x86_64-linux-gnu/libLLVM-11.so.1
   fun:LLVMInitializeAMDGPUTarget
   obj:/usr/lib/x86_64-linux-gnu/dri/radeonsi_dri.so
   fun:__pthread_once_slow
   obj:/usr/lib/x86_64-linux-gnu/dri/radeonsi_dri.so
   obj:/usr/lib/x86_64-linux-gnu/dri/radeonsi_dri.so
}
{
   868cae30817566fc03530e1bc8304363
   Memcheck:Leak
   match-leak-kinds: reachable
   fun:realloc
   fun:_ZN6icu_6710UnicodeSet7compactEv
   fun:_ZN6icu_6710UnicodeSet6freezeEv
   fun:_ZN6icu_6719CollationDataReader4readEPKNS_18CollationTailoringEPKhiRS1_R10UErrorCode
   fun:_ZN6icu_6713CollationRoot4loadER10UErrorCode
   fun:_ZN6icu_6713CollationRoot17getRootCacheEntryER10UErrorCode
   fun:_ZN6icu_6715CollationLoader13loadTailoringERKNS_6LocaleER10UErrorCode
   fun:_ZN6icu_678Collator12makeInstanceERKNS_6LocaleER10UErrorCode
   fun:_ZN6icu_678Collator14createInstanceERKNS_6LocaleER10UErrorCode
   fun:ucol_open_67
   obj:/usr/lib/x86_64-linux-gnu/libQt6Core.so.6.2.4
   fun:_ZN23QFileSystemModelPrivate12sortChildrenEiRK11QModelIndex
}
{
   31da063274e19aa23d9d9d5722a6abb0
   Memcheck:Leak
   match-leak-kinds: reachable
   fun:_Znwm
   obj:/usr/lib/x86_64-linux-gnu/libLLVM-11.so.1
   fun:_ZN4llvm12PassRegistry12registerPassERKNS_8PassInfoEb
   obj:/usr/lib/x86_64-linux-gnu/libLLVM-11.so.1
   fun:__pthread_once_slow
   fun:_ZN4llvm34initializeMachineDominatorTreePassERNS_12PassRegistryE
   obj:/usr/lib/x86_64-linux-gnu/libLLVM-11.so.1
   fun:__pthread_once_slow
   fun:_ZN4llvm29initializeMachineLoopInfoPassERNS_12PassRegistryE
   obj:/usr/lib/x86_64-linux-gnu/libLLVM-11.so.1
   fun:__pthread_once_slow
   fun:_ZN4llvm39initializeMachineBlockFrequencyInfoPassERNS_12PassRegistryE
}
{
   bcce7bd7661228c88a27ad07800a1ea1
   Memcheck:Leak
   match-leak-kinds: reachable
   fun:malloc
   fun:realloc
   fun:g_realloc
   obj:/usr/lib/x86_64-linux-gnu/libglib-2.0.so.0.6600.8
   fun:g_hash_table_new_full
   fun:g_main_context_new
   fun:g_main_context_default
   fun:g_main_context_push_thread_default
   fun:_ZN27QEventDispatcherGlibPrivateC1EP13_GMainContext
   fun:_ZN20QEventDispatcherGlibC1EP7QObject
   obj:/usr/lib/x86_64-linux-gnu/libQt6Core.so.6.2.4
   obj:/usr/lib/x86_64-linux-gnu/libQt6Core.so.6.2.4
}
{
   94a558e4135eb597eddabf2bf7ea2bfc
   Memcheck:Leak
   match-leak-kinds: reachable
   fun:_Znwm
   obj:/usr/lib/x86_64-linux-gnu/libLLVM-11.so.1
   fun:_ZN4llvm12PassRegistry12registerPassERKNS_8PassInfoEb
   obj:/usr/lib/x86_64-linux-gnu/libLLVM-11.so.1
   fun:__pthread_once_slow
   fun:_ZN4llvm27initializeLiveRegMatrixPassERNS_12PassRegistryE
   obj:/usr/lib/x86_64-linux-gnu/libLLVM-11.so.1
   fun:__pthread_once_slow
   obj:/usr/lib/x86_64-linux-gnu/libLLVM-11.so.1
   fun:LLVMInitializeAMDGPUTarget
   obj:/usr/lib/x86_64-linux-gnu/dri/radeonsi_dri.so
   fun:__pthread_once_slow
}
{
   42d73554b278a07f1470afe6cd6446d1
   Memcheck:Leak
   match-leak-kinds: reachable
   fun:malloc
   fun:uprv_strdup_67
   obj:/usr/lib/x86_64-linux-gnu/libicuuc.so.67.1
   obj:/usr/lib/x86_64-linux-gnu/libicuuc.so.67.1
   fun:_ZN6icu_6715CollationLoader14loadFromLocaleER10UErrorCode
   fun:_ZNK6icu_6712UnifiedCache4_getERKNS_12CacheKeyBaseERPKNS_12SharedObjectEPKvR10UErrorCode
   fun:_ZN6icu_6715CollationLoader13getCacheEntryER10UErrorCode
   fun:_ZN6icu_6715CollationLoader13loadTailoringERKNS_6LocaleER10UErrorCode
   fun:_ZN6icu_678Collator12makeInstanceERKNS_6LocaleER10UErrorCode
   fun:_ZN6icu_678Collator14createInstanceERKNS_6LocaleER10UErrorCode
   fun:ucol_open_67
   obj:/usr/lib/x86_64-linux-gnu/libQt6Core.so.6.2.4
}
{
   11800a91816f726303a77fc79aa569eb
   Memcheck:Leak
   match-leak-kinds: reachable
   fun:_Znwm
   obj:/usr/lib/x86_64-linux-gnu/libLLVM-11.so.1
   fun:_ZN4llvm12PassRegistry12registerPassERKNS_8PassInfoEb
   obj:/usr/lib/x86_64-linux-gnu/libLLVM-11.so.1
   fun:__pthread_once_slow
   fun:_ZN4llvm37initializeStripDebugMachineModulePassERNS_12PassRegistryE
   fun:_ZN4llvm17initializeCodeGenERNS_12PassRegistryE
   fun:_ZN4llvm16TargetPassConfigC1ERNS_17LLVMTargetMachineERNS_6legacy15PassManagerBaseE
   obj:/usr/lib/x86_64-linux-gnu/libLLVM-11.so.1
   fun:_ZN4llvm17LLVMTargetMachine19addPassesToEmitFileERNS_6legacy15PassManagerBaseERNS_17raw_pwrite_streamEPS4_NS_15CodeGenFileTypeEbPNS_28MachineModuleInfoWrapperPassE
   obj:/usr/lib/x86_64-linux-gnu/dri/radeonsi_dri.so
   obj:/usr/lib/x86_64-linux-gnu/dri/radeonsi_dri.so
}
{
   8107f04a70af685a9fd3b3a2287ce6c1
   Memcheck:Leak
   match-leak-kinds: reachable
   fun:_Znwm
   obj:/usr/lib/x86_64-linux-gnu/libLLVM-11.so.1
   fun:__pthread_once_slow
   fun:_ZN4llvm36initializeCFLAndersAAWrapperPassPassERNS_12PassRegistryE
   obj:/usr/lib/x86_64-linux-gnu/libLLVM-11.so.1
   fun:__pthread_once_slow
   fun:_ZN4llvm34initializeAAResultsWrapperPassPassERNS_12PassRegistryE
   obj:/usr/lib/x86_64-linux-gnu/libLLVM-11.so.1
   fun:__pthread_once_slow
   fun:_ZN4llvm32initializeScopInfoRegionPassPassERNS_12PassRegistryE
   obj:/usr/lib/x86_64-linux-gnu/libLLVM-11.so.1
   fun:__pthread_once_slow
}
{
   cdc97ef5ae710e262eb291c98d8f7f4c
   Memcheck:Leak
   match-leak-kinds: reachable
   fun:_Znwm
   fun:_ZNSt6vectorISt10unique_ptrIKN4llvm8PassInfoESt14default_deleteIS3_EESaIS6_EE17_M_realloc_insertIJS6_EEEvN9__gnu_cxx17__normal_iteratorIPS6_S8_EEDpOT_
   fun:_ZN4llvm12PassRegistry12registerPassERKNS_8PassInfoEb
   obj:/usr/lib/x86_64-linux-gnu/libLLVM-11.so.1
   fun:__pthread_once_slow
   fun:_ZN4llvm24createRewriteSymbolsPassEv
   fun:_ZN4llvm16TargetPassConfig17addCodeGenPrepareEv
   obj:/usr/lib/x86_64-linux-gnu/libLLVM-11.so.1
   fun:_ZN4llvm16TargetPassConfig13addISelPassesEv
   fun:_ZN4llvm17LLVMTargetMachine19addPassesToEmitFileERNS_6legacy15PassManagerBaseERNS_17raw_pwrite_streamEPS4_NS_15CodeGenFileTypeEbPNS_28MachineModuleInfoWrapperPassE
   obj:/usr/lib/x86_64-linux-gnu/dri/radeonsi_dri.so
   obj:/usr/lib/x86_64-linux-gnu/dri/radeonsi_dri.so
}
{
   57e7288fed6b87f816e192aead55054c
   Memcheck:Leak
   match-leak-kinds: reachable
   fun:_Znwm
   obj:/usr/lib/x86_64-linux-gnu/libLLVM-11.so.1
   fun:__pthread_once_slow
   fun:_ZN4llvm26initializeFinalizeISelPassERNS_12PassRegistryE
   fun:_ZN4llvm17initializeCodeGenERNS_12PassRegistryE
   fun:_ZN4llvm16TargetPassConfigC1ERNS_17LLVMTargetMachineERNS_6legacy15PassManagerBaseE
   obj:/usr/lib/x86_64-linux-gnu/libLLVM-11.so.1
   fun:_ZN4llvm17LLVMTargetMachine19addPassesToEmitFileERNS_6legacy15PassManagerBaseERNS_17raw_pwrite_streamEPS4_NS_15CodeGenFileTypeEbPNS_28MachineModuleInfoWrapperPassE
   obj:/usr/lib/x86_64-linux-gnu/dri/radeonsi_dri.so
   obj:/usr/lib/x86_64-linux-gnu/dri/radeonsi_dri.so
   obj:/usr/lib/x86_64-linux-gnu/dri/radeonsi_dri.so
   obj:/usr/lib/x86_64-linux-gnu/dri/radeonsi_dri.so
}
{
   38f515c047e24deb8232ffc6dec57940
   Memcheck:Leak
   match-leak-kinds: reachable
   fun:realloc
   obj:/usr/lib/x86_64-linux-gnu/libX11.so.6.4.0
   obj:/usr/lib/x86_64-linux-gnu/libX11.so.6.4.0
   obj:/usr/lib/x86_64-linux-gnu/libX11.so.6.4.0
   fun:_XlcCreateLocaleDataBase
   obj:/usr/lib/x86_64-linux-gnu/libX11.so.6.4.0
   obj:/usr/lib/x86_64-linux-gnu/libX11.so.6.4.0
   fun:_XlcCreateLC
   fun:_XlcUtf8Loader
   fun:_XOpenLC
   fun:XmbTextListToTextProperty
   fun:_ZN10QXcbWindow14setWindowTitleEPK14QXcbConnectionjRK7QString
}
{
   9db46caebd21d2ddab5d43ba6e16000e
   Memcheck:Leak
   match-leak-kinds: reachable
   fun:malloc
   fun:g_malloc
   obj:/usr/lib/x86_64-linux-gnu/libglib-2.0.so.0.6600.8
   fun:g_main_context_iteration
   fun:_ZN20QEventDispatcherGlib13processEventsE6QFlagsIN10QEventLoop17ProcessEventsFlagEE
   fun:_ZN10QEventLoop4execE6QFlagsINS_17ProcessEventsFlagEE
   fun:_ZN7QDialog4execEv
   fun:_ZN6Window14button1clickedEv
   fun:_ZN6Window18qt_static_metacallEP7QObjectN11QMetaObject4CallEiPPv
   obj:/usr/lib/x86_64-linux-gnu/libQt6Core.so.6.2.4
   fun:_ZN15QAbstractButton7clickedEb
   obj:/usr/lib/x86_64-linux-gnu/libQt6Widgets.so.6.2.4
}
{
   cf56fb6d68a8cb7ee23bab4e7c289da3
   Memcheck:Leak
   match-leak-kinds: reachable
   fun:malloc
   fun:uprv_strdup_67
   fun:_ZN6icu_676LocaleaSERKS0_
   fun:_ZN6icu_676LocaleC1ERKS0_
   fun:_ZNK6icu_6714LocaleCacheKeyINS_19CollationCacheEntryEE5cloneEv
   fun:_ZNK6icu_6712UnifiedCache7_putNewERKNS_12CacheKeyBaseEPKNS_12SharedObjectE10UErrorCodeRS7_
   fun:_ZNK6icu_6712UnifiedCache5_pollERKNS_12CacheKeyBaseERPKNS_12SharedObjectER10UErrorCode
   fun:_ZNK6icu_6712UnifiedCache4_getERKNS_12CacheKeyBaseERPKNS_12SharedObjectEPKvR10UErrorCode
   fun:_ZN6icu_6715CollationLoader13getCacheEntryER10UErrorCode
   fun:_ZN6icu_6715CollationLoader14loadFromLocaleER10UErrorCode
   fun:_ZNK6icu_6712UnifiedCache4_getERKNS_12CacheKeyBaseERPKNS_12SharedObjectEPKvR10UErrorCode
   fun:_ZN6icu_6715CollationLoader13getCacheEntryER10UErrorCode
}
{
   9e48952b3fb6070e793b9c1b23f5b481
   Memcheck:Leak
   match-leak-kinds: reachable
   fun:_Znwm
   obj:/usr/lib/x86_64-linux-gnu/libLLVM-11.so.1
   fun:_ZN4llvm12PassRegistry12registerPassERKNS_8PassInfoEb
   obj:/usr/lib/x86_64-linux-gnu/libLLVM-11.so.1
   fun:__pthread_once_slow
   fun:_ZN4llvm24createRewriteSymbolsPassEv
   fun:_ZN4llvm16TargetPassConfig17addCodeGenPrepareEv
   obj:/usr/lib/x86_64-linux-gnu/libLLVM-11.so.1
   fun:_ZN4llvm16TargetPassConfig13addISelPassesEv
   fun:_ZN4llvm17LLVMTargetMachine19addPassesToEmitFileERNS_6legacy15PassManagerBaseERNS_17raw_pwrite_streamEPS4_NS_15CodeGenFileTypeEbPNS_28MachineModuleInfoWrapperPassE
   obj:/usr/lib/x86_64-linux-gnu/dri/radeonsi_dri.so
   obj:/usr/lib/x86_64-linux-gnu/dri/radeonsi_dri.so
}
{
   80dc47f19580530a4b9173939d8ac94c
   Memcheck:Leak
   match-leak-kinds: reachable
   fun:_Znwm
   obj:/usr/lib/x86_64-linux-gnu/libLLVM-11.so.1
   fun:_ZNK4llvm17ManagedStaticBase21RegisterManagedStaticEPFPvvEPFvS1_E
   fun:_ZNK4llvm15LLVMContextImpl14getOptPassGateEv
   fun:_ZNK4llvm12FunctionPass12skipFunctionERKNS_8FunctionE
   obj:/usr/lib/x86_64-linux-gnu/libLLVM-11.so.1
   fun:_ZN4llvm13FPPassManager13runOnFunctionERNS_8FunctionE
   fun:_ZN4llvm13FPPassManager11runOnModuleERNS_6ModuleE
   fun:_ZN4llvm6legacy15PassManagerImpl3runERNS_6ModuleE
   fun:LLVMRunPassManager
   obj:/usr/lib/x86_64-linux-gnu/dri/radeonsi_dri.so
   obj:/usr/lib/x86_64-linux-gnu/dri/radeonsi_dri.so
}
{
   0ae07e02e88de561f928d5f98fe30e2f
   Memcheck:Leak
   match-leak-kinds: reachable
   fun:_Znwm
   obj:/usr/lib/x86_64-linux-gnu/libLLVM-11.so.1
   fun:_ZN4llvm12PassRegistry12registerPassERKNS_8PassInfoEb
   obj:/usr/lib/x86_64-linux-gnu/libLLVM-11.so.1
   fun:__pthread_once_slow
   fun:_ZN4llvm32initializeLocalStackSlotPassPassERNS_12PassRegistryE
   fun:_ZN4llvm17initializeCodeGenERNS_12PassRegistryE
   fun:_ZN4llvm16TargetPassConfigC1ERNS_17LLVMTargetMachineERNS_6legacy15PassManagerBaseE
   obj:/usr/lib/x86_64-linux-gnu/libLLVM-11.so.1
   fun:_ZN4llvm17LLVMTargetMachine19addPassesToEmitFileERNS_6legacy15PassManagerBaseERNS_17raw_pwrite_streamEPS4_NS_15CodeGenFileTypeEbPNS_28MachineModuleInfoWrapperPassE
   obj:/usr/lib/x86_64-linux-gnu/dri/radeonsi_dri.so
   obj:/usr/lib/x86_64-linux-gnu/dri/radeonsi_dri.so
}
{
   f4296d6b4da4cab45f84169fc0e8d0a2
   Memcheck:Leak
   match-leak-kinds: reachable
   fun:_Znwm
   obj:/usr/lib/x86_64-linux-gnu/libLLVM-11.so.1
   fun:_ZN4llvm12PassRegistry12registerPassERKNS_8PassInfoEb
   obj:/usr/lib/x86_64-linux-gnu/libLLVM-11.so.1
   fun:__pthread_once_slow
   fun:_ZN4llvm28initializeCodeGenerationPassERNS_12PassRegistryE
   fun:_ZN5polly21initializePollyPassesERN4llvm12PassRegistryE
   obj:/usr/lib/x86_64-linux-gnu/libLLVM-11.so.1
   fun:call_init.part.0
   fun:call_init
   fun:_dl_init
   fun:_dl_catch_exception
   fun:dl_open_worker
}
{
   808b6f65aeee7744fd2a538fd0c3b3c4
   Memcheck:Leak
   match-leak-kinds: reachable
   fun:malloc
   fun:strdup
   fun:FcStrSetAdd
   obj:/usr/lib/x86_64-linux-gnu/libfontconfig.so.1.12.0
   fun:FcGetDefaultLangs
   obj:/usr/lib/x86_64-linux-gnu/libfontconfig.so.1.12.0
   fun:FcFontSetList
   fun:FcFontList
   fun:_ZN19QFontconfigDatabase20populateFontDatabaseEv
   obj:/usr/lib/x86_64-linux-gnu/libQt6Gui.so.6.2.4
   fun:_ZN20QFontDatabasePrivate8findFontERK8QFontDefib
   fun:_ZN20QFontDatabasePrivate4loadEPK12QFontPrivatei
}
{
   3aab1c309c3f28d43a05d77490f802d4
   Memcheck:Leak
   match-leak-kinds: reachable
   fun:_Znwm
   obj:/usr/lib/x86_64-linux-gnu/libLLVM-11.so.1
   fun:_ZN4llvm12PassRegistry12registerPassERKNS_8PassInfoEb
   obj:/usr/lib/x86_64-linux-gnu/libLLVM-11.so.1
   fun:__pthread_once_slow
   fun:_ZN4llvm32initializeRewriteByrefParamsPassERNS_12PassRegistryE
   fun:_ZN5polly21initializePollyPassesERN4llvm12PassRegistryE
   obj:/usr/lib/x86_64-linux-gnu/libLLVM-11.so.1
   fun:call_init.part.0
   fun:call_init
   fun:_dl_init
   fun:_dl_catch_exception
   fun:dl_open_worker
}
{
   9d6b0799e3b8234e8397b71dfedd0031
   Memcheck:Leak
   match-leak-kinds: reachable
   fun:_Znwm
   obj:/usr/lib/x86_64-linux-gnu/libLLVM-11.so.1
   fun:__pthread_once_slow
   fun:_ZN4llvm28initializeCodeGenerationPassERNS_12PassRegistryE
   fun:_ZN5polly21initializePollyPassesERN4llvm12PassRegistryE
   obj:/usr/lib/x86_64-linux-gnu/libLLVM-11.so.1
   fun:call_init.part.0
   fun:call_init
   fun:_dl_init
   fun:_dl_catch_exception
   fun:dl_open_worker
   fun:_dl_catch_exception
   fun:_dl_open
}
{
   cba9cdcdaf5afa96aaf9f2dd2bdcdb20
   Memcheck:Leak
   match-leak-kinds: reachable
   fun:_Znwm
   obj:/usr/lib/x86_64-linux-gnu/libLLVM-11.so.1
   fun:_ZN4llvm12PassRegistry12registerPassERKNS_8PassInfoEb
   obj:/usr/lib/x86_64-linux-gnu/libLLVM-11.so.1
   fun:__pthread_once_slow
   fun:_ZN4llvm25initializeScopInlinerPassERNS_12PassRegistryE
   fun:_ZN5polly21initializePollyPassesERN4llvm12PassRegistryE
   obj:/usr/lib/x86_64-linux-gnu/libLLVM-11.so.1
   fun:call_init.part.0
   fun:call_init
   fun:_dl_init
   fun:_dl_catch_exception
   fun:dl_open_worker
}
{
   dd2897a8b13206a6a5e3ee8f96f62f6f
   Memcheck:Leak
   match-leak-kinds: indirect
   fun:malloc
   fun:_ZN10QArrayData8allocateEPPS_xxxNS_16AllocationOptionE
   fun:_ZN7QString10fromLatin1E14QByteArrayView
   obj:/usr/lib/x86_64-linux-gnu/libQt6Core.so.6.2.4
   fun:_ZN4QDirC1ERK7QString
   fun:_ZN6Window16createScreenshotEv
   fun:_ZN6Window18qt_static_metacallEP7QObjectN11QMetaObject4CallEiPPv
   obj:/usr/lib/x86_64-linux-gnu/libQt6Core.so.6.2.4
   obj:/usr/lib/x86_64-linux-gnu/libQt6Widgets.so.6.2.4
   obj:/usr/lib/x86_64-linux-gnu/libQt6Widgets.so.6.2.4
   fun:_ZN15QAbstractButton17mouseReleaseEventEP11QMouseEvent
   fun:_ZN7QWidget5eventEP6QEvent
}
{
   fa2412a2df7e568af17327261897e4d0
   Memcheck:Leak
   match-leak-kinds: reachable
   fun:malloc
   fun:strdup
   fun:IceRegisterForProtocolSetup
   fun:SmcOpenConnection
   obj:/usr/lib/x86_64-linux-gnu/libQt6XcbQpa.so.6.2.4
   fun:_ZNK15QXcbIntegration28createPlatformSessionManagerERK7QStringS2_
   obj:/usr/lib/x86_64-linux-gnu/libQt6Gui.so.6.2.4
   fun:_ZN15QSessionManagerC1EP15QGuiApplicationR7QStringS3_
   fun:_ZN22QGuiApplicationPrivate4initEv
   fun:_ZN19QApplicationPrivate4initEv
   fun:main
}
{
   3bd6dd7f4cc50f99d327b048e172546f
   Memcheck:Leak
   match-leak-kinds: reachable
   fun:_Znwm
   obj:/usr/lib/x86_64-linux-gnu/libLLVM-11.so.1
   fun:_ZN4llvm12PassRegistry12registerPassERKNS_8PassInfoEb
   obj:/usr/lib/x86_64-linux-gnu/libLLVM-11.so.1
   fun:__pthread_once_slow
   fun:_ZN4llvm28initializeDummyCGSCCPassPassERNS_12PassRegistryE
   fun:_ZN4llvm16TargetPassConfig14addISelPrepareEv
   fun:_ZN4llvm16TargetPassConfig13addISelPassesEv
   fun:_ZN4llvm17LLVMTargetMachine19addPassesToEmitFileERNS_6legacy15PassManagerBaseERNS_17raw_pwrite_streamEPS4_NS_15CodeGenFileTypeEbPNS_28MachineModuleInfoWrapperPassE
   obj:/usr/lib/x86_64-linux-gnu/dri/radeonsi_dri.so
   obj:/usr/lib/x86_64-linux-gnu/dri/radeonsi_dri.so
   obj:/usr/lib/x86_64-linux-gnu/dri/radeonsi_dri.so
}
{
   afcc37ff9ca80bb32f5ff6bd3641b6ac
   Memcheck:Leak
   match-leak-kinds: reachable
   fun:calloc
   obj:/usr/lib/x86_64-linux-gnu/libdbus-1.so.3.19.13
   fun:_dbus_message_loader_queue_messages
   obj:/usr/lib/x86_64-linux-gnu/libdbus-1.so.3.19.13
   obj:/usr/lib/x86_64-linux-gnu/libdbus-1.so.3.19.13
   obj:/usr/lib/x86_64-linux-gnu/libdbus-1.so.3.19.13
   obj:/usr/lib/x86_64-linux-gnu/libdbus-1.so.3.19.13
   obj:/usr/lib/x86_64-linux-gnu/libdbus-1.so.3.19.13
   obj:/usr/lib/x86_64-linux-gnu/libdbus-1.so.3.19.13
   obj:/usr/lib/x86_64-linux-gnu/libdbus-1.so.3.19.13
   fun:dbus_connection_send_with_reply_and_block
   fun:dbus_bus_register
}
{
   5e8fbc95f846274ab56915c9b9eff7bf
   Memcheck:Leak
   match-leak-kinds: reachable
   fun:_Znwm
   obj:/usr/lib/x86_64-linux-gnu/libLLVM-11.so.1
   fun:_ZN4llvm12PassRegistry12registerPassERKNS_8PassInfoEb
   obj:/usr/lib/x86_64-linux-gnu/libLLVM-11.so.1
   fun:__pthread_once_slow
   fun:_ZN4llvm37initializeRegUsageInfoPropagationPassERNS_12PassRegistryE
   fun:_ZN4llvm17initializeCodeGenERNS_12PassRegistryE
   fun:_ZN4llvm16TargetPassConfigC1ERNS_17LLVMTargetMachineERNS_6legacy15PassManagerBaseE
   obj:/usr/lib/x86_64-linux-gnu/libLLVM-11.so.1
   fun:_ZN4llvm17LLVMTargetMachine19addPassesToEmitFileERNS_6legacy15PassManagerBaseERNS_17raw_pwrite_streamEPS4_NS_15CodeGenFileTypeEbPNS_28MachineModuleInfoWrapperPassE
   obj:/usr/lib/x86_64-linux-gnu/dri/radeonsi_dri.so
   obj:/usr/lib/x86_64-linux-gnu/dri/radeonsi_dri.so
}
{
   60cf7b36981e784dad4780340af67e92
   Memcheck:Leak
   match-leak-kinds: reachable
   fun:_Znwm
   obj:/usr/lib/x86_64-linux-gnu/libLLVM-11.so.1
   fun:__pthread_once_slow
   fun:_ZN4llvm27initializeFuncletLayoutPassERNS_12PassRegistryE
   fun:_ZN4llvm17initializeCodeGenERNS_12PassRegistryE
   fun:_ZN4llvm16TargetPassConfigC1ERNS_17LLVMTargetMachineERNS_6legacy15PassManagerBaseE
   obj:/usr/lib/x86_64-linux-gnu/libLLVM-11.so.1
   fun:_ZN4llvm17LLVMTargetMachine19addPassesToEmitFileERNS_6legacy15PassManagerBaseERNS_17raw_pwrite_streamEPS4_NS_15CodeGenFileTypeEbPNS_28MachineModuleInfoWrapperPassE
   obj:/usr/lib/x86_64-linux-gnu/dri/radeonsi_dri.so
   obj:/usr/lib/x86_64-linux-gnu/dri/radeonsi_dri.so
   obj:/usr/lib/x86_64-linux-gnu/dri/radeonsi_dri.so
   obj:/usr/lib/x86_64-linux-gnu/dri/radeonsi_dri.so
}
{
   e87f4df86ae411d36d9780890e09f37d
   Memcheck:Leak
   match-leak-kinds: reachable
   fun:_Znwm
   obj:/usr/lib/x86_64-linux-gnu/libLLVM-11.so.1
   obj:/usr/lib/x86_64-linux-gnu/libLLVM-11.so.1
   obj:/usr/lib/x86_64-linux-gnu/libLLVM-11.so.1
   obj:/usr/lib/x86_64-linux-gnu/libLLVM-11.so.1
   fun:_ZN4llvm2cl23ParseCommandLineOptionsEiPKPKcNS_9StringRefEPNS_11raw_ostreamES2_b
   fun:LLVMParseCommandLineOptions
   obj:/usr/lib/x86_64-linux-gnu/dri/radeonsi_dri.so
   fun:__pthread_once_slow
   obj:/usr/lib/x86_64-linux-gnu/dri/radeonsi_dri.so
   obj:/usr/lib/x86_64-linux-gnu/dri/radeonsi_dri.so
   obj:/usr/lib/x86_64-linux-gnu/dri/radeonsi_dri.so
}
{
   f7b6e2e3329f44786dd14f2438b4c773
   Memcheck:Leak
   match-leak-kinds: reachable
   fun:_Znwm
   obj:/usr/lib/x86_64-linux-gnu/libLLVM-11.so.1
   fun:__pthread_once_slow
   fun:_ZN4llvm24initializeDumpModulePassERNS_12PassRegistryE
   fun:_ZN5polly21initializePollyPassesERN4llvm12PassRegistryE
   obj:/usr/lib/x86_64-linux-gnu/libLLVM-11.so.1
   fun:call_init.part.0
   fun:call_init
   fun:_dl_init
   fun:_dl_catch_exception
   fun:dl_open_worker
   fun:_dl_catch_exception
   fun:_dl_open
}
{
   78a655eff614b08980ebf12f0a7b46ea
   Memcheck:Leak
   match-leak-kinds: reachable
   fun:_Znwm
   obj:/usr/lib/x86_64-linux-gnu/libLLVM-11.so.1
   fun:_ZN4llvm12PassRegistry12registerPassERKNS_8PassInfoEb
   obj:/usr/lib/x86_64-linux-gnu/libLLVM-11.so.1
   fun:__pthread_once_slow
   fun:_ZN4llvm28initializeMachineSinkingPassERNS_12PassRegistryE
   fun:_ZN4llvm17initializeCodeGenERNS_12PassRegistryE
   fun:_ZN4llvm16TargetPassConfigC1ERNS_17LLVMTargetMachineERNS_6legacy15PassManagerBaseE
   obj:/usr/lib/x86_64-linux-gnu/libLLVM-11.so.1
   fun:_ZN4llvm17LLVMTargetMachine19addPassesToEmitFileERNS_6legacy15PassManagerBaseERNS_17raw_pwrite_streamEPS4_NS_15CodeGenFileTypeEbPNS_28MachineModuleInfoWrapperPassE
   obj:/usr/lib/x86_64-linux-gnu/dri/radeonsi_dri.so
   obj:/usr/lib/x86_64-linux-gnu/dri/radeonsi_dri.so
}
{
   a4ee07cc50411be903d900ee41b1bcdb
   Memcheck:Leak
   match-leak-kinds: reachable
   fun:_Znwm
   obj:/usr/lib/x86_64-linux-gnu/libLLVM-11.so.1
   fun:__pthread_once_slow
   fun:_ZN4llvm33initializeXRayInstrumentationPassERNS_12PassRegistryE
   fun:_ZN4llvm16TargetPassConfigC1ERNS_17LLVMTargetMachineERNS_6legacy15PassManagerBaseE
   obj:/usr/lib/x86_64-linux-gnu/libLLVM-11.so.1
   fun:_ZN4llvm17LLVMTargetMachine19addPassesToEmitFileERNS_6legacy15PassManagerBaseERNS_17raw_pwrite_streamEPS4_NS_15CodeGenFileTypeEbPNS_28MachineModuleInfoWrapperPassE
   obj:/usr/lib/x86_64-linux-gnu/dri/radeonsi_dri.so
   obj:/usr/lib/x86_64-linux-gnu/dri/radeonsi_dri.so
   obj:/usr/lib/x86_64-linux-gnu/dri/radeonsi_dri.so
   obj:/usr/lib/x86_64-linux-gnu/dri/radeonsi_dri.so
   obj:/usr/lib/x86_64-linux-gnu/dri/radeonsi_dri.so
}
{
   79ebf51797a038757bdd1d2ede921a5b
   Memcheck:Leak
   match-leak-kinds: reachable
   fun:malloc
   fun:uhash_open_67
   obj:/usr/lib/x86_64-linux-gnu/libicuuc.so.67.1
   fun:_ZN6icu_6715CollationLoader14loadFromLocaleER10UErrorCode
   fun:_ZNK6icu_6712UnifiedCache4_getERKNS_12CacheKeyBaseERPKNS_12SharedObjectEPKvR10UErrorCode
   fun:_ZN6icu_6715CollationLoader13getCacheEntryER10UErrorCode
   fun:_ZN6icu_6715CollationLoader13loadTailoringERKNS_6LocaleER10UErrorCode
   fun:_ZN6icu_678Collator12makeInstanceERKNS_6LocaleER10UErrorCode
   fun:_ZN6icu_678Collator14createInstanceERKNS_6LocaleER10UErrorCode
   fun:ucol_open_67
   obj:/usr/lib/x86_64-linux-gnu/libQt6Core.so.6.2.4
   fun:_ZN23QFileSystemModelPrivate12sortChildrenEiRK11QModelIndex
}
{
   a91befc16ab06e5df5ed968c78dbd827
   Memcheck:Leak
   match-leak-kinds: reachable
   fun:_Znwm
   obj:/usr/lib/x86_64-linux-gnu/libLLVM-11.so.1
   fun:__pthread_once_slow
   fun:_ZN4llvm31initializePatchableFunctionPassERNS_12PassRegistryE
   fun:_ZN4llvm17initializeCodeGenERNS_12PassRegistryE
   fun:_ZN4llvm16TargetPassConfigC1ERNS_17LLVMTargetMachineERNS_6legacy15PassManagerBaseE
   obj:/usr/lib/x86_64-linux-gnu/libLLVM-11.so.1
   fun:_ZN4llvm17LLVMTargetMachine19addPassesToEmitFileERNS_6legacy15PassManagerBaseERNS_17raw_pwrite_streamEPS4_NS_15CodeGenFileTypeEbPNS_28MachineModuleInfoWrapperPassE
   obj:/usr/lib/x86_64-linux-gnu/dri/radeonsi_dri.so
   obj:/usr/lib/x86_64-linux-gnu/dri/radeonsi_dri.so
   obj:/usr/lib/x86_64-linux-gnu/dri/radeonsi_dri.so
   obj:/usr/lib/x86_64-linux-gnu/dri/radeonsi_dri.so
}
{
   b54039302c3431d000d08e8d464fc282
   Memcheck:Leak
   match-leak-kinds: reachable
   fun:_Znwm
   obj:/usr/lib/x86_64-linux-gnu/libLLVM-11.so.1
   fun:_ZN4llvm12PassRegistry12registerPassERKNS_8PassInfoEb
   obj:/usr/lib/x86_64-linux-gnu/libLLVM-11.so.1
   fun:__pthread_once_slow
   fun:_ZN4llvm31initializePruneUnprofitablePassERNS_12PassRegistryE
   obj:/usr/lib/x86_64-linux-gnu/libLLVM-11.so.1
   fun:call_init.part.0
   fun:call_init
   fun:_dl_init
   fun:_dl_catch_exception
   fun:dl_open_worker
   fun:_dl_catch_exception
}
{
   0c229fabf3715eb40271f5dfe23087a1
   Memcheck:Leak
   match-leak-kinds: reachable
   fun:_Znwm
   obj:/usr/lib/x86_64-linux-gnu/libLLVM-11.so.1
   fun:_ZN4llvm12PassRegistry12registerPassERKNS_8PassInfoEb
   obj:/usr/lib/x86_64-linux-gnu/libLLVM-11.so.1
   fun:__pthread_once_slow
   fun:_ZN4llvm30initializeBranchRelaxationPassERNS_12PassRegistryE
   fun:_ZN4llvm17initializeCodeGenERNS_12PassRegistryE
   fun:_ZN4llvm16TargetPassConfigC1ERNS_17LLVMTargetMachineERNS_6legacy15PassManagerBaseE
   obj:/usr/lib/x86_64-linux-gnu/libLLVM-11.so.1
   fun:_ZN4llvm17LLVMTargetMachine19addPassesToEmitFileERNS_6legacy15PassManagerBaseERNS_17raw_pwrite_streamEPS4_NS_15CodeGenFileTypeEbPNS_28MachineModuleInfoWrapperPassE
   obj:/usr/lib/x86_64-linux-gnu/dri/radeonsi_dri.so
   obj:/usr/lib/x86_64-linux-gnu/dri/radeonsi_dri.so
}
{
   3a2ed17e0c61b9a00944a5f1a4eabc8f
   Memcheck:Leak
   match-leak-kinds: reachable
   fun:_Znwm
   obj:/usr/lib/x86_64-linux-gnu/libLLVM-11.so.1
   fun:_ZN4llvm12PassRegistry12registerPassERKNS_8PassInfoEb
   obj:/usr/lib/x86_64-linux-gnu/libLLVM-11.so.1
   fun:__pthread_once_slow
   fun:_ZN4llvm26initializeExpandPostRAPassERNS_12PassRegistryE
   fun:_ZN4llvm17initializeCodeGenERNS_12PassRegistryE
   fun:_ZN4llvm16TargetPassConfigC1ERNS_17LLVMTargetMachineERNS_6legacy15PassManagerBaseE
   obj:/usr/lib/x86_64-linux-gnu/libLLVM-11.so.1
   fun:_ZN4llvm17LLVMTargetMachine19addPassesToEmitFileERNS_6legacy15PassManagerBaseERNS_17raw_pwrite_streamEPS4_NS_15CodeGenFileTypeEbPNS_28MachineModuleInfoWrapperPassE
   obj:/usr/lib/x86_64-linux-gnu/dri/radeonsi_dri.so
   obj:/usr/lib/x86_64-linux-gnu/dri/radeonsi_dri.so
}
{
   ce48dd02dddcb947fc022844046aece7
   Memcheck:Leak
   match-leak-kinds: reachable
   fun:_Znwm
   obj:/usr/lib/x86_64-linux-gnu/libLLVM-11.so.1
   fun:_ZN4llvm12PassRegistry12registerPassERKNS_8PassInfoEb
   obj:/usr/lib/x86_64-linux-gnu/libLLVM-11.so.1
   fun:__pthread_once_slow
   obj:/usr/lib/x86_64-linux-gnu/libLLVM-11.so.1
   fun:_ZN4llvm27createCFGSimplificationPassEjbbbbSt8functionIFbRKNS_8FunctionEEE
   fun:LLVMAddCFGSimplificationPass
   obj:/usr/lib/x86_64-linux-gnu/dri/radeonsi_dri.so
   obj:/usr/lib/x86_64-linux-gnu/dri/radeonsi_dri.so
   obj:/usr/lib/x86_64-linux-gnu/dri/radeonsi_dri.so
   obj:/usr/lib/x86_64-linux-gnu/dri/radeonsi_dri.so
}
{
   9c9b9d532c3a788e4997e534a346626d
   Memcheck:Leak
   match-leak-kinds: reachable
   fun:_Znwm
   obj:/usr/lib/x86_64-linux-gnu/libLLVM-11.so.1
   fun:__pthread_once_slow
   fun:_ZN4llvm34initializePostRAMachineSinkingPassERNS_12PassRegistryE
   fun:_ZN4llvm17initializeCodeGenERNS_12PassRegistryE
   fun:_ZN4llvm16TargetPassConfigC1ERNS_17LLVMTargetMachineERNS_6legacy15PassManagerBaseE
   obj:/usr/lib/x86_64-linux-gnu/libLLVM-11.so.1
   fun:_ZN4llvm17LLVMTargetMachine19addPassesToEmitFileERNS_6legacy15PassManagerBaseERNS_17raw_pwrite_streamEPS4_NS_15CodeGenFileTypeEbPNS_28MachineModuleInfoWrapperPassE
   obj:/usr/lib/x86_64-linux-gnu/dri/radeonsi_dri.so
   obj:/usr/lib/x86_64-linux-gnu/dri/radeonsi_dri.so
   obj:/usr/lib/x86_64-linux-gnu/dri/radeonsi_dri.so
   obj:/usr/lib/x86_64-linux-gnu/dri/radeonsi_dri.so
}
{
   b5dcc16b35c4e0fda5810728f29c0cba
   Memcheck:Leak
   match-leak-kinds: indirect
   fun:malloc
   fun:_ZN10QArrayData8allocateEPPS_xxxNS_16AllocationOptionE
   fun:_ZN7QString10fromLatin1E14QByteArrayView
   obj:/usr/lib/x86_64-linux-gnu/libQt6Core.so.6.2.4
   fun:_ZN4QDirC1ERK7QString
   fun:_ZN6Window14button2clickedEv
   fun:_ZN6Window18qt_static_metacallEP7QObjectN11QMetaObject4CallEiPPv
   obj:/usr/lib/x86_64-linux-gnu/libQt6Core.so.6.2.4
   fun:_ZN15QAbstractButton7clickedEb
   obj:/usr/lib/x86_64-linux-gnu/libQt6Widgets.so.6.2.4
   obj:/usr/lib/x86_64-linux-gnu/libQt6Widgets.so.6.2.4
   fun:_ZN15QAbstractButton17mouseReleaseEventEP11QMouseEvent
}
{
   ee17c7227d11d2332c82d1ad2413e167
   Memcheck:Leak
   match-leak-kinds: reachable
   fun:_Znwm
   obj:/usr/lib/x86_64-linux-gnu/libLLVM-11.so.1
   fun:__pthread_once_slow
   fun:_ZN4llvm30initializeMachineSchedulerPassERNS_12PassRegistryE
   fun:_ZN4llvm17initializeCodeGenERNS_12PassRegistryE
   fun:_ZN4llvm16TargetPassConfigC1ERNS_17LLVMTargetMachineERNS_6legacy15PassManagerBaseE
   obj:/usr/lib/x86_64-linux-gnu/libLLVM-11.so.1
   fun:_ZN4llvm17LLVMTargetMachine19addPassesToEmitFileERNS_6legacy15PassManagerBaseERNS_17raw_pwrite_streamEPS4_NS_15CodeGenFileTypeEbPNS_28MachineModuleInfoWrapperPassE
   obj:/usr/lib/x86_64-linux-gnu/dri/radeonsi_dri.so
   obj:/usr/lib/x86_64-linux-gnu/dri/radeonsi_dri.so
   obj:/usr/lib/x86_64-linux-gnu/dri/radeonsi_dri.so
   obj:/usr/lib/x86_64-linux-gnu/dri/radeonsi_dri.so
}
{
   0129fe56e40faaf1dfcf9780e3e42574
   Memcheck:Leak
   match-leak-kinds: reachable
   fun:_Znwm
   obj:/usr/lib/x86_64-linux-gnu/libLLVM-11.so.1
   fun:_ZN4llvm12PassRegistry12registerPassERKNS_8PassInfoEb
   obj:/usr/lib/x86_64-linux-gnu/libLLVM-11.so.1
   fun:__pthread_once_slow
   fun:_ZN4llvm28initializeRegionInfoPassPassERNS_12PassRegistryE
   obj:/usr/lib/x86_64-linux-gnu/libLLVM-11.so.1
   fun:__pthread_once_slow
   fun:_ZN4llvm32initializeScopInfoRegionPassPassERNS_12PassRegistryE
   obj:/usr/lib/x86_64-linux-gnu/libLLVM-11.so.1
   fun:__pthread_once_slow
   fun:_ZN4llvm28initializeDependenceInfoPassERNS_12PassRegistryE
}
{
   ee15d9e7f60e6320d162c6e4eb393064
   Memcheck:Leak
   match-leak-kinds: reachable
   fun:_Znwm
   obj:/usr/lib/x86_64-linux-gnu/libLLVM-11.so.1
   fun:_ZN4llvm12PassRegistry12registerPassERKNS_8PassInfoEb
   obj:/usr/lib/x86_64-linux-gnu/libLLVM-11.so.1
   fun:__pthread_once_slow
   fun:_ZN4llvm36createSeparateConstOffsetFromGEPPassEb
   obj:/usr/lib/x86_64-linux-gnu/libLLVM-11.so.1
   fun:_ZN4llvm16TargetPassConfig13addISelPassesEv
   fun:_ZN4llvm17LLVMTargetMachine19addPassesToEmitFileERNS_6legacy15PassManagerBaseERNS_17raw_pwrite_streamEPS4_NS_15CodeGenFileTypeEbPNS_28MachineModuleInfoWrapperPassE
   obj:/usr/lib/x86_64-linux-gnu/dri/radeonsi_dri.so
   obj:/usr/lib/x86_64-linux-gnu/dri/radeonsi_dri.so
   obj:/usr/lib/x86_64-linux-gnu/dri/radeonsi_dri.so
}
{
   c154bdcc5df4152881ac86e209e90a12
   Memcheck:Leak
   match-leak-kinds: reachable
   fun:_Znwm
   obj:/usr/lib/x86_64-linux-gnu/libLLVM-11.so.1
   fun:_ZN4llvm12PassRegistry12registerPassERKNS_8PassInfoEb
   obj:/usr/lib/x86_64-linux-gnu/libLLVM-11.so.1
   fun:__pthread_once_slow
   fun:_ZN4llvm21createBarrierNoopPassEv
   obj:/usr/lib/x86_64-linux-gnu/dri/radeonsi_dri.so
   obj:/usr/lib/x86_64-linux-gnu/dri/radeonsi_dri.so
   obj:/usr/lib/x86_64-linux-gnu/dri/radeonsi_dri.so
   obj:/usr/lib/x86_64-linux-gnu/dri/radeonsi_dri.so
   obj:/usr/lib/x86_64-linux-gnu/dri/radeonsi_dri.so
   obj:/usr/lib/x86_64-linux-gnu/dri/radeonsi_dri.so
}
{
   c6479ffd0468e85a8d09bcfeda99eb22
   Memcheck:Leak
   match-leak-kinds: reachable
   fun:_Znwm
   obj:/usr/lib/x86_64-linux-gnu/libLLVM-11.so.1
   fun:_ZN4llvm12PassRegistry12registerPassERKNS_8PassInfoEb
   obj:/usr/lib/x86_64-linux-gnu/libLLVM-11.so.1
   fun:__pthread_once_slow
   fun:_ZN4llvm24initializeDumpModulePassERNS_12PassRegistryE
   fun:_ZN5polly21initializePollyPassesERN4llvm12PassRegistryE
   obj:/usr/lib/x86_64-linux-gnu/libLLVM-11.so.1
   fun:call_init.part.0
   fun:call_init
   fun:_dl_init
   fun:_dl_catch_exception
   fun:dl_open_worker
}
{
   0efcf2d904cd7339fdcc323bc55a2890
   Memcheck:Leak
   match-leak-kinds: reachable
   fun:_Znwm
   obj:/usr/lib/x86_64-linux-gnu/libLLVM-11.so.1
   fun:_ZN4llvm12PassRegistry12registerPassERKNS_8PassInfoEb
   obj:/usr/lib/x86_64-linux-gnu/libLLVM-11.so.1
   fun:__pthread_once_slow
   fun:_ZN4llvm32initializeImplicitNullChecksPassERNS_12PassRegistryE
   fun:_ZN4llvm17initializeCodeGenERNS_12PassRegistryE
   fun:_ZN4llvm16TargetPassConfigC1ERNS_17LLVMTargetMachineERNS_6legacy15PassManagerBaseE
   obj:/usr/lib/x86_64-linux-gnu/libLLVM-11.so.1
   fun:_ZN4llvm17LLVMTargetMachine19addPassesToEmitFileERNS_6legacy15PassManagerBaseERNS_17raw_pwrite_streamEPS4_NS_15CodeGenFileTypeEbPNS_28MachineModuleInfoWrapperPassE
   obj:/usr/lib/x86_64-linux-gnu/dri/radeonsi_dri.so
   obj:/usr/lib/x86_64-linux-gnu/dri/radeonsi_dri.so
}
{
   0cd6cd0ebd816a71cb68f317a851937a
   Memcheck:Leak
   match-leak-kinds: reachable
   fun:malloc
   fun:strdup
   obj:/usr/lib/x86_64-linux-gnu/libfontconfig.so.1.12.0
   obj:/usr/lib/x86_64-linux-gnu/libexpat.so.1.6.12
   obj:/usr/lib/x86_64-linux-gnu/libexpat.so.1.6.12
   obj:/usr/lib/x86_64-linux-gnu/libexpat.so.1.6.12
   fun:XML_ParseBuffer
   obj:/usr/lib/x86_64-linux-gnu/libfontconfig.so.1.12.0
   obj:/usr/lib/x86_64-linux-gnu/libfontconfig.so.1.12.0
   obj:/usr/lib/x86_64-linux-gnu/libfontconfig.so.1.12.0
   obj:/usr/lib/x86_64-linux-gnu/libfontconfig.so.1.12.0
   obj:/usr/lib/x86_64-linux-gnu/libexpat.so.1.6.12
}
{
   ab6d3eeff61f78c8bd41d493ccac909b
   Memcheck:Leak
   match-leak-kinds: reachable
   fun:_Znwm
   obj:/usr/lib/x86_64-linux-gnu/libLLVM-11.so.1
   fun:__pthread_once_slow
   fun:_ZN4llvm23createAggressiveDCEPassEv
   fun:LLVMAddAggressiveDCEPass
   obj:/usr/lib/x86_64-linux-gnu/dri/radeonsi_dri.so
   obj:/usr/lib/x86_64-linux-gnu/dri/radeonsi_dri.so
   obj:/usr/lib/x86_64-linux-gnu/dri/radeonsi_dri.so
   obj:/usr/lib/x86_64-linux-gnu/dri/radeonsi_dri.so
   obj:/usr/lib/x86_64-linux-gnu/dri/radeonsi_dri.so
   fun:start_thread
   fun:clone
}
{
   20dce2f0de4308455d606bf76c2c893a
   Memcheck:Leak
   match-leak-kinds: reachable
   fun:_Znwm
   obj:/usr/lib/x86_64-linux-gnu/libLLVM-11.so.1
   fun:__pthread_once_slow
   fun:_ZN4llvm50initializeMachineOptimizationRemarkEmitterPassPassERNS_12PassRegistryE
   fun:_ZN4llvm17initializeCodeGenERNS_12PassRegistryE
   fun:_ZN4llvm16TargetPassConfigC1ERNS_17LLVMTargetMachineERNS_6legacy15PassManagerBaseE
   obj:/usr/lib/x86_64-linux-gnu/libLLVM-11.so.1
   fun:_ZN4llvm17LLVMTargetMachine19addPassesToEmitFileERNS_6legacy15PassManagerBaseERNS_17raw_pwrite_streamEPS4_NS_15CodeGenFileTypeEbPNS_28MachineModuleInfoWrapperPassE
   obj:/usr/lib/x86_64-linux-gnu/dri/radeonsi_dri.so
   obj:/usr/lib/x86_64-linux-gnu/dri/radeonsi_dri.so
   obj:/usr/lib/x86_64-linux-gnu/dri/radeonsi_dri.so
   obj:/usr/lib/x86_64-linux-gnu/dri/radeonsi_dri.so
}
{
   800902b0707c616d34ee2b3c522183ba
   Memcheck:Leak
   match-leak-kinds: reachable
   fun:_Znwm
   obj:/usr/lib/x86_64-linux-gnu/libLLVM-11.so.1
   fun:__pthread_once_slow
   fun:_ZN4llvm35initializeLCSSAVerificationPassPassERNS_12PassRegistryE
   obj:/usr/lib/x86_64-linux-gnu/libLLVM-11.so.1
   fun:__pthread_once_slow
   fun:_ZN4llvm30initializeLCSSAWrapperPassPassERNS_12PassRegistryE
   fun:_ZN4llvm22initializeLoopPassPassERNS_12PassRegistryE
   obj:/usr/lib/x86_64-linux-gnu/libLLVM-11.so.1
   fun:__pthread_once_slow
   fun:_ZN4llvm14createLICMPassEv
   fun:LLVMAddLICMPass
}
{
   6b8aa3cf91f1bd116d629cb1abc5f6ba
   Memcheck:Leak
   match-leak-kinds: reachable
   fun:_Znwm
   obj:/usr/lib/x86_64-linux-gnu/libLLVM-11.so.1
   fun:__pthread_once_slow
   fun:_ZN4llvm25initializeLazyBPIPassPassERNS_12PassRegistryE
   fun:_ZN4llvm25initializeLazyBFIPassPassERNS_12PassRegistryE
   obj:/usr/lib/x86_64-linux-gnu/libLLVM-11.so.1
   fun:__pthread_once_slow
   fun:_ZN4llvm50initializeOptimizationRemarkEmitterWrapperPassPassERNS_12PassRegistryE
   obj:/usr/lib/x86_64-linux-gnu/libLLVM-11.so.1
   fun:__pthread_once_slow
   fun:_ZN4llvm38initializeScopDetectionWrapperPassPassERNS_12PassRegistryE
   obj:/usr/lib/x86_64-linux-gnu/libLLVM-11.so.1
}
{
   95520f34a3bf4cfb1560f80071a8dc46
   Memcheck:Leak
   match-leak-kinds: reachable
   fun:_Znwm
   obj:/usr/lib/x86_64-linux-gnu/libLLVM-11.so.1
   fun:__pthread_once_slow
   fun:_ZN4llvm28initializeDwarfEHPreparePassERNS_12PassRegistryE
   fun:_ZN4llvm17initializeCodeGenERNS_12PassRegistryE
   fun:_ZN4llvm16TargetPassConfigC1ERNS_17LLVMTargetMachineERNS_6legacy15PassManagerBaseE
   obj:/usr/lib/x86_64-linux-gnu/libLLVM-11.so.1
   fun:_ZN4llvm17LLVMTargetMachine19addPassesToEmitFileERNS_6legacy15PassManagerBaseERNS_17raw_pwrite_streamEPS4_NS_15CodeGenFileTypeEbPNS_28MachineModuleInfoWrapperPassE
   obj:/usr/lib/x86_64-linux-gnu/dri/radeonsi_dri.so
   obj:/usr/lib/x86_64-linux-gnu/dri/radeonsi_dri.so
   obj:/usr/lib/x86_64-linux-gnu/dri/radeonsi_dri.so
   obj:/usr/lib/x86_64-linux-gnu/dri/radeonsi_dri.so
}
{
   4b45c84bac8fd28c3ddb88cde37ca918
   Memcheck:Leak
   match-leak-kinds: reachable
   fun:_Znwm
   obj:/usr/lib/x86_64-linux-gnu/libLLVM-11.so.1
   obj:/usr/lib/x86_64-linux-gnu/libLLVM-11.so.1
   fun:_ZN4llvm12PassRegistry12registerPassERKNS_8PassInfoEb
   obj:/usr/lib/x86_64-linux-gnu/libLLVM-11.so.1
   fun:__pthread_once_slow
   fun:_ZN4llvm22initializeMIRNamerPassERNS_12PassRegistryE
   fun:_ZN4llvm17initializeCodeGenERNS_12PassRegistryE
   fun:_ZN4llvm16TargetPassConfigC1ERNS_17LLVMTargetMachineERNS_6legacy15PassManagerBaseE
   obj:/usr/lib/x86_64-linux-gnu/libLLVM-11.so.1
   fun:_ZN4llvm17LLVMTargetMachine19addPassesToEmitFileERNS_6legacy15PassManagerBaseERNS_17raw_pwrite_streamEPS4_NS_15CodeGenFileTypeEbPNS_28MachineModuleInfoWrapperPassE
   obj:/usr/lib/x86_64-linux-gnu/dri/radeonsi_dri.so
}
{
   8ac1e8e2e39948dce64becd5844d7cd5
   Memcheck:Leak
   match-leak-kinds: reachable
   fun:_Znwm
   obj:/usr/lib/x86_64-linux-gnu/libLLVM-11.so.1
   fun:__pthread_once_slow
   fun:_ZN4llvm50initializeOptimizationRemarkEmitterWrapperPassPassERNS_12PassRegistryE
   obj:/usr/lib/x86_64-linux-gnu/libLLVM-11.so.1
   fun:__pthread_once_slow
   fun:_ZN4llvm38initializeScopDetectionWrapperPassPassERNS_12PassRegistryE
   obj:/usr/lib/x86_64-linux-gnu/libLLVM-11.so.1
   fun:__pthread_once_slow
   fun:_ZN4llvm32initializeScopInfoRegionPassPassERNS_12PassRegistryE
   obj:/usr/lib/x86_64-linux-gnu/libLLVM-11.so.1
   fun:__pthread_once_slow
}
{
   04a1243002a9297d38cad193d7e3427a
   Memcheck:Leak
   match-leak-kinds: reachable
   fun:_Znwm
   obj:/usr/lib/x86_64-linux-gnu/libLLVM-11.so.1
   fun:__pthread_once_slow
   fun:_ZN4llvm33initializeProcessImplicitDefsPassERNS_12PassRegistryE
   fun:_ZN4llvm17initializeCodeGenERNS_12PassRegistryE
   fun:_ZN4llvm16TargetPassConfigC1ERNS_17LLVMTargetMachineERNS_6legacy15PassManagerBaseE
   obj:/usr/lib/x86_64-linux-gnu/libLLVM-11.so.1
   fun:_ZN4llvm17LLVMTargetMachine19addPassesToEmitFileERNS_6legacy15PassManagerBaseERNS_17raw_pwrite_streamEPS4_NS_15CodeGenFileTypeEbPNS_28MachineModuleInfoWrapperPassE
   obj:/usr/lib/x86_64-linux-gnu/dri/radeonsi_dri.so
   obj:/usr/lib/x86_64-linux-gnu/dri/radeonsi_dri.so
   obj:/usr/lib/x86_64-linux-gnu/dri/radeonsi_dri.so
   obj:/usr/lib/x86_64-linux-gnu/dri/radeonsi_dri.so
}
{
   cd27dddf20404efeb9cfdf6ccf6313db
   Memcheck:Leak
   match-leak-kinds: reachable
   fun:_Znwm
   obj:/usr/lib/x86_64-linux-gnu/libLLVM-11.so.1
   fun:__pthread_once_slow
   fun:_ZN4llvm34initializePostMachineSchedulerPassERNS_12PassRegistryE
   fun:_ZN4llvm17initializeCodeGenERNS_12PassRegistryE
   fun:_ZN4llvm16TargetPassConfigC1ERNS_17LLVMTargetMachineERNS_6legacy15PassManagerBaseE
   obj:/usr/lib/x86_64-linux-gnu/libLLVM-11.so.1
   fun:_ZN4llvm17LLVMTargetMachine19addPassesToEmitFileERNS_6legacy15PassManagerBaseERNS_17raw_pwrite_streamEPS4_NS_15CodeGenFileTypeEbPNS_28MachineModuleInfoWrapperPassE
   obj:/usr/lib/x86_64-linux-gnu/dri/radeonsi_dri.so
   obj:/usr/lib/x86_64-linux-gnu/dri/radeonsi_dri.so
   obj:/usr/lib/x86_64-linux-gnu/dri/radeonsi_dri.so
   obj:/usr/lib/x86_64-linux-gnu/dri/radeonsi_dri.so
}
{
   72e54cf1b8cd2695cfb8ccf215766534
   Memcheck:Leak
   match-leak-kinds: reachable
   fun:_Znwm
   obj:/usr/lib/x86_64-linux-gnu/libLLVM-11.so.1
   fun:_ZN4llvm12PassRegistry12registerPassERKNS_8PassInfoEb
   obj:/usr/lib/x86_64-linux-gnu/libLLVM-11.so.1
   fun:__pthread_once_slow
   fun:_ZN4llvm31initializeStackSlotColoringPassERNS_12PassRegistryE
   fun:_ZN4llvm17initializeCodeGenERNS_12PassRegistryE
   fun:_ZN4llvm16TargetPassConfigC1ERNS_17LLVMTargetMachineERNS_6legacy15PassManagerBaseE
   obj:/usr/lib/x86_64-linux-gnu/libLLVM-11.so.1
   fun:_ZN4llvm17LLVMTargetMachine19addPassesToEmitFileERNS_6legacy15PassManagerBaseERNS_17raw_pwrite_streamEPS4_NS_15CodeGenFileTypeEbPNS_28MachineModuleInfoWrapperPassE
   obj:/usr/lib/x86_64-linux-gnu/dri/radeonsi_dri.so
   obj:/usr/lib/x86_64-linux-gnu/dri/radeonsi_dri.so
}
{
   c97fa9e05bb561bdbd6f5362cf4e683d
   Memcheck:Leak
   match-leak-kinds: reachable
   fun:_Znwm
   obj:/usr/lib/x86_64-linux-gnu/libLLVM-11.so.1
   fun:_ZN4llvm12PassRegistry12registerPassERKNS_8PassInfoEb
   obj:/usr/lib/x86_64-linux-gnu/libLLVM-11.so.1
   fun:__pthread_once_slow
   fun:_ZN4llvm28initializePolyhedralInfoPassERNS_12PassRegistryE
   fun:_ZN5polly21initializePollyPassesERN4llvm12PassRegistryE
   obj:/usr/lib/x86_64-linux-gnu/libLLVM-11.so.1
   fun:call_init.part.0
   fun:call_init
   fun:_dl_init
   fun:_dl_catch_exception
   fun:dl_open_worker
}
{
   5320c7747b78fe1bf655cecda867a652
   Memcheck:Leak
   match-leak-kinds: reachable
   fun:_Znwm
   obj:/usr/lib/x86_64-linux-gnu/libLLVM-11.so.1
   fun:__pthread_once_slow
   fun:_ZN4llvm24initializeShrinkWrapPassERNS_12PassRegistryE
   fun:_ZN4llvm17initializeCodeGenERNS_12PassRegistryE
   fun:_ZN4llvm16TargetPassConfigC1ERNS_17LLVMTargetMachineERNS_6legacy15PassManagerBaseE
   obj:/usr/lib/x86_64-linux-gnu/libLLVM-11.so.1
   fun:_ZN4llvm17LLVMTargetMachine19addPassesToEmitFileERNS_6legacy15PassManagerBaseERNS_17raw_pwrite_streamEPS4_NS_15CodeGenFileTypeEbPNS_28MachineModuleInfoWrapperPassE
   obj:/usr/lib/x86_64-linux-gnu/dri/radeonsi_dri.so
   obj:/usr/lib/x86_64-linux-gnu/dri/radeonsi_dri.so
   obj:/usr/lib/x86_64-linux-gnu/dri/radeonsi_dri.so
   obj:/usr/lib/x86_64-linux-gnu/dri/radeonsi_dri.so
}
{
   b198cbd4044d073fa0321386217e0b1b
   Memcheck:Leak
   match-leak-kinds: reachable
   fun:malloc
   fun:open_path
   fun:_dl_map_object
   fun:openaux
   fun:_dl_catch_exception
   fun:_dl_map_object_deps
   fun:dl_open_worker
   fun:_dl_catch_exception
   fun:_dl_open
   fun:dlopen_doit
   fun:_dl_catch_exception
   fun:_dl_catch_error
}
{
   1c368cd968659888033c55e5b11a7208
   Memcheck:Leak
   match-leak-kinds: reachable
   fun:_Znwm
   obj:/usr/lib/x86_64-linux-gnu/libLLVM-11.so.1
   fun:_ZN4llvm12PassRegistry12registerPassERKNS_8PassInfoEb
   obj:/usr/lib/x86_64-linux-gnu/libLLVM-11.so.1
   fun:__pthread_once_slow
   fun:_ZN4llvm18createEarlyCSEPassEb
   obj:/usr/lib/x86_64-linux-gnu/libLLVM-11.so.1
   fun:_ZN4llvm16TargetPassConfig13addISelPassesEv
   fun:_ZN4llvm17LLVMTargetMachine19addPassesToEmitFileERNS_6legacy15PassManagerBaseERNS_17raw_pwrite_streamEPS4_NS_15CodeGenFileTypeEbPNS_28MachineModuleInfoWrapperPassE
   obj:/usr/lib/x86_64-linux-gnu/dri/radeonsi_dri.so
   obj:/usr/lib/x86_64-linux-gnu/dri/radeonsi_dri.so
   obj:/usr/lib/x86_64-linux-gnu/dri/radeonsi_dri.so
}
{
   a09379fc18dee5c31e8d4f4d4a93c7ec
   Memcheck:Leak
   match-leak-kinds: reachable
   fun:_Znwm
   obj:/usr/lib/x86_64-linux-gnu/libLLVM-11.so.1
   fun:_ZN4llvm12PassRegistry12registerPassERKNS_8PassInfoEb
   obj:/usr/lib/x86_64-linux-gnu/libLLVM-11.so.1
   fun:__pthread_once_slow
   fun:_ZN4llvm34initializePhiValuesWrapperPassPassERNS_12PassRegistryE
   obj:/usr/lib/x86_64-linux-gnu/libLLVM-11.so.1
   fun:__pthread_once_slow
   fun:_ZN4llvm32initializeBasicAAWrapperPassPassERNS_12PassRegistryE
   obj:/usr/lib/x86_64-linux-gnu/libLLVM-11.so.1
   fun:__pthread_once_slow
   fun:_ZN4llvm34initializeAAResultsWrapperPassPassERNS_12PassRegistryE
}
{
   aed2edbe4a6c1f0e263603ea2a969a92
   Memcheck:Leak
   match-leak-kinds: reachable
   fun:_Znwm
   obj:/usr/lib/x86_64-linux-gnu/libLLVM-11.so.1
   fun:_ZN4llvm12PassRegistry12registerPassERKNS_8PassInfoEb
   obj:/usr/lib/x86_64-linux-gnu/libLLVM-11.so.1
   fun:__pthread_once_slow
   fun:_ZN4llvm34initializeIndirectBrExpandPassPassERNS_12PassRegistryE
   fun:_ZN4llvm17initializeCodeGenERNS_12PassRegistryE
   fun:_ZN4llvm16TargetPassConfigC1ERNS_17LLVMTargetMachineERNS_6legacy15PassManagerBaseE
   obj:/usr/lib/x86_64-linux-gnu/libLLVM-11.so.1
   fun:_ZN4llvm17LLVMTargetMachine19addPassesToEmitFileERNS_6legacy15PassManagerBaseERNS_17raw_pwrite_streamEPS4_NS_15CodeGenFileTypeEbPNS_28MachineModuleInfoWrapperPassE
   obj:/usr/lib/x86_64-linux-gnu/dri/radeonsi_dri.so
   obj:/usr/lib/x86_64-linux-gnu/dri/radeonsi_dri.so
}
{
   770b3356e96d7c6de66e3dd325dc1e86
   Memcheck:Leak
   match-leak-kinds: reachable
   fun:_Znwm
   obj:/usr/lib/x86_64-linux-gnu/libLLVM-11.so.1
   obj:/usr/lib/x86_64-linux-gnu/libLLVM-11.so.1
   fun:_ZN4llvm2cl6Option11addArgumentEv
   obj:/usr/lib/x86_64-linux-gnu/libLLVM-11.so.1
   obj:/usr/lib/x86_64-linux-gnu/libLLVM-11.so.1
   fun:call_init.part.0
   fun:call_init
   fun:_dl_init
   fun:_dl_catch_exception
   fun:dl_open_worker
   fun:_dl_catch_exception
   fun:_dl_open
}
{
   a31dc580001d7dcbc72565806c36f384
   Memcheck:Leak
   match-leak-kinds: reachable
   fun:_Znwm
   obj:/usr/lib/x86_64-linux-gnu/libLLVM-11.so.1
   fun:__pthread_once_slow
   fun:_ZN4llvm34initializeMemorySSAWrapperPassPassERNS_12PassRegistryE
   obj:/usr/lib/x86_64-linux-gnu/libLLVM-11.so.1
   fun:__pthread_once_slow
   fun:_ZN4llvm14createLICMPassEv
   fun:LLVMAddLICMPass
   obj:/usr/lib/x86_64-linux-gnu/dri/radeonsi_dri.so
   obj:/usr/lib/x86_64-linux-gnu/dri/radeonsi_dri.so
   obj:/usr/lib/x86_64-linux-gnu/dri/radeonsi_dri.so
   obj:/usr/lib/x86_64-linux-gnu/dri/radeonsi_dri.so
}
{
   77ab99746c25d3a33b5c9f70ece390c5
   Memcheck:Leak
   match-leak-kinds: reachable
   fun:_Znwm
   fun:_ZNSt8_Rb_treeINSt7__cxx1112basic_stringIcSt11char_traitsIcESaIcEEESt4pairIKS5_jESt10_Select1stIS8_ESt4lessIS5_ESaIS8_EE22_M_emplace_hint_uniqueIJRKSt21piecewise_construct_tSt5tupleIJRS7_EESJ_IJEEEEESt17_Rb_tree_iteratorIS8_ESt23_Rb_tree_const_iteratorIS8_EDpOT_
   obj:/usr/lib/x86_64-linux-gnu/libLLVM-11.so.1
   obj:/usr/lib/x86_64-linux-gnu/libLLVM-11.so.1
   obj:/usr/lib/x86_64-linux-gnu/libLLVM-11.so.1
   obj:/usr/lib/x86_64-linux-gnu/libLLVM-11.so.1
   fun:call_init.part.0
   fun:call_init
   fun:_dl_init
   fun:_dl_catch_exception
   fun:dl_open_worker
   fun:_dl_catch_exception
   fun:_dl_open
}
{
   20a44796d1a4a1e83b445efe3767948a
   Memcheck:Leak
   match-leak-kinds: reachable
   fun:_Znwm
   obj:/usr/lib/x86_64-linux-gnu/libLLVM-11.so.1
   fun:_ZN4llvm12PassRegistry12registerPassERKNS_8PassInfoEb
   obj:/usr/lib/x86_64-linux-gnu/libLLVM-11.so.1
   fun:__pthread_once_slow
   fun:_ZN4llvm38initializeRenameIndependentSubregsPassERNS_12PassRegistryE
   fun:_ZN4llvm17initializeCodeGenERNS_12PassRegistryE
   fun:_ZN4llvm16TargetPassConfigC1ERNS_17LLVMTargetMachineERNS_6legacy15PassManagerBaseE
   obj:/usr/lib/x86_64-linux-gnu/libLLVM-11.so.1
   fun:_ZN4llvm17LLVMTargetMachine19addPassesToEmitFileERNS_6legacy15PassManagerBaseERNS_17raw_pwrite_streamEPS4_NS_15CodeGenFileTypeEbPNS_28MachineModuleInfoWrapperPassE
   obj:/usr/lib/x86_64-linux-gnu/dri/radeonsi_dri.so
   obj:/usr/lib/x86_64-linux-gnu/dri/radeonsi_dri.so
}
{
   3a9fdff3eb0e9f0a362c33232f816461
   Memcheck:Leak
   match-leak-kinds: reachable
   fun:_Znwm
   obj:/usr/lib/x86_64-linux-gnu/libLLVM-11.so.1
   fun:__pthread_once_slow
   fun:_ZN4llvm33initializeScopInfoWrapperPassPassERNS_12PassRegistryE
   obj:/usr/lib/x86_64-linux-gnu/libLLVM-11.so.1
   fun:__pthread_once_slow
   fun:_ZN4llvm39initializeDependenceInfoWrapperPassPassERNS_12PassRegistryE
   fun:_ZN5polly21initializePollyPassesERN4llvm12PassRegistryE
   obj:/usr/lib/x86_64-linux-gnu/libLLVM-11.so.1
   fun:call_init.part.0
   fun:call_init
   fun:_dl_init
   fun:_dl_catch_exception
}
{
   e07ed6fc519f65d8ab6f5fd021aa44ee
   Memcheck:Leak
   match-leak-kinds: reachable
   fun:_Znwm
   obj:/usr/lib/x86_64-linux-gnu/libLLVM-11.so.1
   fun:__pthread_once_slow
   obj:/usr/lib/x86_64-linux-gnu/libLLVM-11.so.1
   obj:/usr/lib/x86_64-linux-gnu/dri/radeonsi_dri.so
   fun:__pthread_once_slow
   obj:/usr/lib/x86_64-linux-gnu/dri/radeonsi_dri.so
   obj:/usr/lib/x86_64-linux-gnu/dri/radeonsi_dri.so
   obj:/usr/lib/x86_64-linux-gnu/dri/radeonsi_dri.so
   obj:/usr/lib/x86_64-linux-gnu/dri/radeonsi_dri.so
   fun:start_thread
   fun:clone
}
{
   513af9491bb9c27ac4b30f0335e26fc8
   Memcheck:Leak
   match-leak-kinds: reachable
   fun:_Znwm
   obj:/usr/lib/x86_64-linux-gnu/libLLVM-11.so.1
   fun:__pthread_once_slow
   fun:_ZN4llvm30initializeLCSSAWrapperPassPassERNS_12PassRegistryE
   fun:_ZN4llvm22initializeLoopPassPassERNS_12PassRegistryE
   obj:/usr/lib/x86_64-linux-gnu/libLLVM-11.so.1
   fun:__pthread_once_slow
   fun:_ZN4llvm14createLICMPassEv
   fun:LLVMAddLICMPass
   obj:/usr/lib/x86_64-linux-gnu/dri/radeonsi_dri.so
   obj:/usr/lib/x86_64-linux-gnu/dri/radeonsi_dri.so
   obj:/usr/lib/x86_64-linux-gnu/dri/radeonsi_dri.so
}
{
   94b926559a9352577b196d832f2bd7bc
   Memcheck:Leak
   match-leak-kinds: reachable
   fun:_Znwm
   obj:/usr/lib/x86_64-linux-gnu/libLLVM-11.so.1
   fun:_ZN4llvm12PassRegistry12registerPassERKNS_8PassInfoEb
   obj:/usr/lib/x86_64-linux-gnu/libLLVM-11.so.1
   fun:__pthread_once_slow
   fun:_ZN4llvm35createCanonicalizeFreezeInLoopsPassEv
   fun:_ZN4llvm16TargetPassConfig11addIRPassesEv
   obj:/usr/lib/x86_64-linux-gnu/libLLVM-11.so.1
   fun:_ZN4llvm16TargetPassConfig13addISelPassesEv
   fun:_ZN4llvm17LLVMTargetMachine19addPassesToEmitFileERNS_6legacy15PassManagerBaseERNS_17raw_pwrite_streamEPS4_NS_15CodeGenFileTypeEbPNS_28MachineModuleInfoWrapperPassE
   obj:/usr/lib/x86_64-linux-gnu/dri/radeonsi_dri.so
   obj:/usr/lib/x86_64-linux-gnu/dri/radeonsi_dri.so
}
{
   e4f1b6f11ecaca115517cfb26407932a
   Memcheck:Leak
   match-leak-kinds: reachable
   fun:_Znwm
   obj:/usr/lib/x86_64-linux-gnu/libLLVM-11.so.1
   fun:__pthread_once_slow
   fun:_ZN4llvm32initializeLocalStackSlotPassPassERNS_12PassRegistryE
   fun:_ZN4llvm17initializeCodeGenERNS_12PassRegistryE
   fun:_ZN4llvm16TargetPassConfigC1ERNS_17LLVMTargetMachineERNS_6legacy15PassManagerBaseE
   obj:/usr/lib/x86_64-linux-gnu/libLLVM-11.so.1
   fun:_ZN4llvm17LLVMTargetMachine19addPassesToEmitFileERNS_6legacy15PassManagerBaseERNS_17raw_pwrite_streamEPS4_NS_15CodeGenFileTypeEbPNS_28MachineModuleInfoWrapperPassE
   obj:/usr/lib/x86_64-linux-gnu/dri/radeonsi_dri.so
   obj:/usr/lib/x86_64-linux-gnu/dri/radeonsi_dri.so
   obj:/usr/lib/x86_64-linux-gnu/dri/radeonsi_dri.so
   obj:/usr/lib/x86_64-linux-gnu/dri/radeonsi_dri.so
}
{
   6489b22eed484ecf51a139de4a2bd53e
   Memcheck:Leak
   match-leak-kinds: reachable
   fun:_Znwm
   obj:/usr/lib/x86_64-linux-gnu/libLLVM-11.so.1
   fun:_ZN4llvm12PassRegistry12registerPassERKNS_8PassInfoEb
   obj:/usr/lib/x86_64-linux-gnu/libLLVM-11.so.1
   fun:__pthread_once_slow
   fun:_ZN4llvm34initializeGlobalsAAWrapperPassPassERNS_12PassRegistryE
   obj:/usr/lib/x86_64-linux-gnu/libLLVM-11.so.1
   fun:__pthread_once_slow
   fun:_ZN4llvm34initializeAAResultsWrapperPassPassERNS_12PassRegistryE
   obj:/usr/lib/x86_64-linux-gnu/libLLVM-11.so.1
   fun:__pthread_once_slow
   fun:_ZN4llvm32initializeScopInfoRegionPassPassERNS_12PassRegistryE
}
{
   d6587090ecc589ed4ee32a3ae43dac47
   Memcheck:Leak
   match-leak-kinds: reachable
   fun:_Znwm
   obj:/usr/lib/x86_64-linux-gnu/libLLVM-11.so.1
   fun:__pthread_once_slow
   fun:_ZN4llvm33createPromoteMemoryToRegisterPassEv
   fun:LLVMAddPromoteMemoryToRegisterPass
   obj:/usr/lib/x86_64-linux-gnu/dri/radeonsi_dri.so
   obj:/usr/lib/x86_64-linux-gnu/dri/radeonsi_dri.so
   obj:/usr/lib/x86_64-linux-gnu/dri/radeonsi_dri.so
   obj:/usr/lib/x86_64-linux-gnu/dri/radeonsi_dri.so
   obj:/usr/lib/x86_64-linux-gnu/dri/radeonsi_dri.so
   fun:start_thread
   fun:clone
}
{
   5bedf6b0c4d7cfa20d4b3c7aa2bf7ef7
   Memcheck:Leak
   match-leak-kinds: reachable
   fun:_Znwm
   obj:/usr/lib/x86_64-linux-gnu/libLLVM-11.so.1
   fun:_ZN4llvm12PassRegistry12registerPassERKNS_8PassInfoEb
   obj:/usr/lib/x86_64-linux-gnu/libLLVM-11.so.1
   fun:__pthread_once_slow
   fun:_ZN4llvm30initializeEarlyMachineLICMPassERNS_12PassRegistryE
   fun:_ZN4llvm17initializeCodeGenERNS_12PassRegistryE
   fun:_ZN4llvm16TargetPassConfigC1ERNS_17LLVMTargetMachineERNS_6legacy15PassManagerBaseE
   obj:/usr/lib/x86_64-linux-gnu/libLLVM-11.so.1
   fun:_ZN4llvm17LLVMTargetMachine19addPassesToEmitFileERNS_6legacy15PassManagerBaseERNS_17raw_pwrite_streamEPS4_NS_15CodeGenFileTypeEbPNS_28MachineModuleInfoWrapperPassE
   obj:/usr/lib/x86_64-linux-gnu/dri/radeonsi_dri.so
   obj:/usr/lib/x86_64-linux-gnu/dri/radeonsi_dri.so
}
{
   e89fd9feaeca4f39318f191168110c90
   Memcheck:Leak
   match-leak-kinds: reachable
   fun:malloc
   obj:/usr/lib/x86_64-linux-gnu/libX11.so.6.4.0
   obj:/usr/lib/x86_64-linux-gnu/libX11.so.6.4.0
   fun:_XlcCreateLC
   fun:_XlcUtf8Loader
   fun:_XOpenLC
   fun:XmbTextListToTextProperty
   fun:_ZN10QXcbWindow14setWindowTitleEPK14QXcbConnectionjRK7QString
   fun:_ZN14QXcbConnection19getQtSelectionOwnerEv
   obj:/usr/lib/x86_64-linux-gnu/libQt6XcbQpa.so.6.2.4
   fun:_ZN14QXcbConnection17initializeScreensEv
   fun:_ZN14QXcbConnectionC1EP19QXcbNativeInterfacebjPKc
}
{
   552f0a06ea3838a8318cb79fe2116e08
   Memcheck:Leak
   match-leak-kinds: reachable
   fun:_Znwm
   obj:/usr/lib/x86_64-linux-gnu/libLLVM-11.so.1
   fun:_ZN4llvm12PassRegistry12registerPassERKNS_8PassInfoEb
   obj:/usr/lib/x86_64-linux-gnu/libLLVM-11.so.1
   fun:__pthread_once_slow
   fun:_ZN4llvm33createLowerConstantIntrinsicsPassEv
   fun:_ZN4llvm16TargetPassConfig11addIRPassesEv
   obj:/usr/lib/x86_64-linux-gnu/libLLVM-11.so.1
   fun:_ZN4llvm16TargetPassConfig13addISelPassesEv
   fun:_ZN4llvm17LLVMTargetMachine19addPassesToEmitFileERNS_6legacy15PassManagerBaseERNS_17raw_pwrite_streamEPS4_NS_15CodeGenFileTypeEbPNS_28MachineModuleInfoWrapperPassE
   obj:/usr/lib/x86_64-linux-gnu/dri/radeonsi_dri.so
   obj:/usr/lib/x86_64-linux-gnu/dri/radeonsi_dri.so
}
{
   8ba5ddf336dc0f82c970547cca16c6e3
   Memcheck:Leak
   match-leak-kinds: reachable
   fun:_Znwm
   obj:/usr/lib/x86_64-linux-gnu/libLLVM-11.so.1
   fun:_ZN4llvm12PassRegistry12registerPassERKNS_8PassInfoEb
   obj:/usr/lib/x86_64-linux-gnu/libLLVM-11.so.1
   fun:__pthread_once_slow
   fun:_ZN4llvm21initializeRABasicPassERNS_12PassRegistryE
   fun:_ZN4llvm17initializeCodeGenERNS_12PassRegistryE
   fun:_ZN4llvm16TargetPassConfigC1ERNS_17LLVMTargetMachineERNS_6legacy15PassManagerBaseE
   obj:/usr/lib/x86_64-linux-gnu/libLLVM-11.so.1
   fun:_ZN4llvm17LLVMTargetMachine19addPassesToEmitFileERNS_6legacy15PassManagerBaseERNS_17raw_pwrite_streamEPS4_NS_15CodeGenFileTypeEbPNS_28MachineModuleInfoWrapperPassE
   obj:/usr/lib/x86_64-linux-gnu/dri/radeonsi_dri.so
   obj:/usr/lib/x86_64-linux-gnu/dri/radeonsi_dri.so
}
{
   ec4841ec039dded09d7d2b79bcd5897e
   Memcheck:Leak
   match-leak-kinds: reachable
   fun:_Znwm
   obj:/usr/lib/x86_64-linux-gnu/libLLVM-11.so.1
   fun:__pthread_once_slow
   fun:_ZN4llvm22initializeMIRNamerPassERNS_12PassRegistryE
   fun:_ZN4llvm17initializeCodeGenERNS_12PassRegistryE
   fun:_ZN4llvm16TargetPassConfigC1ERNS_17LLVMTargetMachineERNS_6legacy15PassManagerBaseE
   obj:/usr/lib/x86_64-linux-gnu/libLLVM-11.so.1
   fun:_ZN4llvm17LLVMTargetMachine19addPassesToEmitFileERNS_6legacy15PassManagerBaseERNS_17raw_pwrite_streamEPS4_NS_15CodeGenFileTypeEbPNS_28MachineModuleInfoWrapperPassE
   obj:/usr/lib/x86_64-linux-gnu/dri/radeonsi_dri.so
   obj:/usr/lib/x86_64-linux-gnu/dri/radeonsi_dri.so
   obj:/usr/lib/x86_64-linux-gnu/dri/radeonsi_dri.so
   obj:/usr/lib/x86_64-linux-gnu/dri/radeonsi_dri.so
}
{
   2b03bfafcd708bc9aaa9495cd0f446ac
   Memcheck:Leak
   match-leak-kinds: reachable
   fun:_Znwm
   obj:/usr/lib/x86_64-linux-gnu/libLLVM-11.so.1
   fun:_ZN4llvm12PassRegistry12registerPassERKNS_8PassInfoEb
   obj:/usr/lib/x86_64-linux-gnu/libLLVM-11.so.1
   fun:__pthread_once_slow
   fun:_ZN4llvm28initializeSpillPlacementPassERNS_12PassRegistryE
   obj:/usr/lib/x86_64-linux-gnu/libLLVM-11.so.1
   fun:__pthread_once_slow
   fun:_ZN4llvm22initializeRAGreedyPassERNS_12PassRegistryE
   fun:_ZN4llvm17initializeCodeGenERNS_12PassRegistryE
   fun:_ZN4llvm16TargetPassConfigC1ERNS_17LLVMTargetMachineERNS_6legacy15PassManagerBaseE
   obj:/usr/lib/x86_64-linux-gnu/libLLVM-11.so.1
}
{
   84ff97b7982f183e773ebbe9489d72f3
   Memcheck:Leak
   match-leak-kinds: reachable
   fun:malloc
   obj:/usr/lib/x86_64-linux-gnu/libglib-2.0.so.0.6600.8
   fun:g_private_get
   fun:g_main_context_push_thread_default
   fun:_ZN27QEventDispatcherGlibPrivateC1EP13_GMainContext
   fun:_ZN20QEventDispatcherGlibC1EP7QObject
   obj:/usr/lib/x86_64-linux-gnu/libQt6Core.so.6.2.4
   obj:/usr/lib/x86_64-linux-gnu/libQt6Core.so.6.2.4
   obj:/usr/lib/x86_64-linux-gnu/libQt6Core.so.6.2.4
   fun:start_thread
   fun:clone
}
{
   ad4a7cc88a8072ac41cb392fa25ff45c
   Memcheck:Leak
   match-leak-kinds: reachable
   fun:_Znwm
   obj:/usr/lib/x86_64-linux-gnu/libLLVM-11.so.1
   fun:_ZN4llvm12PassRegistry12registerPassERKNS_8PassInfoEb
   obj:/usr/lib/x86_64-linux-gnu/libLLVM-11.so.1
   fun:__pthread_once_slow
   fun:_ZN4llvm43initializeBlockFrequencyInfoWrapperPassPassERNS_12PassRegistryE
   obj:/usr/lib/x86_64-linux-gnu/libLLVM-11.so.1
   fun:__pthread_once_slow
   fun:_ZN4llvm26createConstantHoistingPassEv
   fun:_ZN4llvm16TargetPassConfig11addIRPassesEv
   obj:/usr/lib/x86_64-linux-gnu/libLLVM-11.so.1
   fun:_ZN4llvm16TargetPassConfig13addISelPassesEv
}
{
   bbc5fc6e1c2b8f5d2ef7c80dcae952cc
   Memcheck:Leak
   match-leak-kinds: reachable
   fun:_Znwm
   obj:/usr/lib/x86_64-linux-gnu/libLLVM-11.so.1
   fun:__pthread_once_slow
   fun:_ZN4llvm38initializeMachinePostDominatorTreePassERNS_12PassRegistryE
   obj:/usr/lib/x86_64-linux-gnu/libLLVM-11.so.1
   fun:__pthread_once_slow
   obj:/usr/lib/x86_64-linux-gnu/libLLVM-11.so.1
   fun:LLVMInitializeAMDGPUTarget
   obj:/usr/lib/x86_64-linux-gnu/dri/radeonsi_dri.so
   fun:__pthread_once_slow
   obj:/usr/lib/x86_64-linux-gnu/dri/radeonsi_dri.so
   obj:/usr/lib/x86_64-linux-gnu/dri/radeonsi_dri.so
}
{
   40e3c59bcb6fc040b3e814b0e9184f41
   Memcheck:Leak
   match-leak-kinds: reachable
   fun:_Znwm
   obj:/usr/lib/x86_64-linux-gnu/libLLVM-11.so.1
   fun:__pthread_once_slow
   fun:_ZN4llvm25createNaryReassociatePassEv
   obj:/usr/lib/x86_64-linux-gnu/libLLVM-11.so.1
   fun:_ZN4llvm16TargetPassConfig13addISelPassesEv
   fun:_ZN4llvm17LLVMTargetMachine19addPassesToEmitFileERNS_6legacy15PassManagerBaseERNS_17raw_pwrite_streamEPS4_NS_15CodeGenFileTypeEbPNS_28MachineModuleInfoWrapperPassE
   obj:/usr/lib/x86_64-linux-gnu/dri/radeonsi_dri.so
   obj:/usr/lib/x86_64-linux-gnu/dri/radeonsi_dri.so
   obj:/usr/lib/x86_64-linux-gnu/dri/radeonsi_dri.so
   obj:/usr/lib/x86_64-linux-gnu/dri/radeonsi_dri.so
   obj:/usr/lib/x86_64-linux-gnu/dri/radeonsi_dri.so
}
{
   573c61203825f02afc70ee4d73afc961
   Memcheck:Leak
   match-leak-kinds: reachable
   fun:_Znwm
   obj:/usr/lib/x86_64-linux-gnu/libLLVM-11.so.1
   fun:__pthread_once_slow
   fun:_ZN4llvm34initializeIslScheduleOptimizerPassERNS_12PassRegistryE
   fun:_ZN5polly21initializePollyPassesERN4llvm12PassRegistryE
   obj:/usr/lib/x86_64-linux-gnu/libLLVM-11.so.1
   fun:call_init.part.0
   fun:call_init
   fun:_dl_init
   fun:_dl_catch_exception
   fun:dl_open_worker
   fun:_dl_catch_exception
   fun:_dl_open
}
{
   d14340819b8a28452f05a24900b50ac4
   Memcheck:Leak
   match-leak-kinds: reachable
   fun:_Znwm
   obj:/usr/lib/x86_64-linux-gnu/libLLVM-11.so.1
   fun:_ZN4llvm12PassRegistry12registerPassERKNS_8PassInfoEb
   obj:/usr/lib/x86_64-linux-gnu/libLLVM-11.so.1
   fun:call_init.part.0
   fun:call_init
   fun:_dl_init
   fun:_dl_catch_exception
   fun:dl_open_worker
   fun:_dl_catch_exception
   fun:_dl_open
   fun:dlopen_doit
   fun:_dl_catch_exception
}
{
   ca3be38520a76e499643532f5f29f17a
   Memcheck:Leak
   match-leak-kinds: reachable
   fun:_Znwm
   obj:/usr/lib/x86_64-linux-gnu/libLLVM-11.so.1
   fun:__pthread_once_slow
   fun:_ZN4llvm38initializeLegacyDivergenceAnalysisPassERNS_12PassRegistryE
   obj:/usr/lib/x86_64-linux-gnu/libLLVM-11.so.1
   fun:__pthread_once_slow
   obj:/usr/lib/x86_64-linux-gnu/libLLVM-11.so.1
   fun:LLVMInitializeAMDGPUTarget
   obj:/usr/lib/x86_64-linux-gnu/dri/radeonsi_dri.so
   fun:__pthread_once_slow
   obj:/usr/lib/x86_64-linux-gnu/dri/radeonsi_dri.so
   obj:/usr/lib/x86_64-linux-gnu/dri/radeonsi_dri.so
}
{
   e8d71ab6613bb71981c1241d3fbbaeab
   Memcheck:Leak
   match-leak-kinds: reachable
   fun:_Znwm
   obj:/usr/lib/x86_64-linux-gnu/libLLVM-11.so.1
   fun:__pthread_once_slow
   fun:_ZN4llvm32initializeScopInfoRegionPassPassERNS_12PassRegistryE
   obj:/usr/lib/x86_64-linux-gnu/libLLVM-11.so.1
   fun:__pthread_once_slow
   fun:_ZN4llvm28initializeDependenceInfoPassERNS_12PassRegistryE
   obj:/usr/lib/x86_64-linux-gnu/libLLVM-11.so.1
   fun:__pthread_once_slow
   fun:_ZN4llvm28initializeCodeGenerationPassERNS_12PassRegistryE
   fun:_ZN5polly21initializePollyPassesERN4llvm12PassRegistryE
   obj:/usr/lib/x86_64-linux-gnu/libLLVM-11.so.1
}
{
   98184b0ca02e50c5ba85c284313d6ebc
   Memcheck:Leak
   match-leak-kinds: reachable
   fun:malloc
   obj:/usr/lib/x86_64-linux-gnu/libdbus-1.so.3.19.13
   fun:dbus_threads_init
   obj:/usr/lib/x86_64-linux-gnu/libQt6DBus.so.6.2.4
   obj:/usr/lib/x86_64-linux-gnu/libQt6DBus.so.6.2.4
   fun:_ZN7QObject5eventEP6QEvent
   fun:_ZN16QCoreApplication15notifyInternal2EP7QObjectP6QEvent
   fun:_ZN23QCoreApplicationPrivate16sendPostedEventsEP7QObjectiP11QThreadData
   obj:/usr/lib/x86_64-linux-gnu/libQt6Core.so.6.2.4
   fun:g_main_context_dispatch
   obj:/usr/lib/x86_64-linux-gnu/libglib-2.0.so.0.6600.8
   fun:g_main_context_iteration
}
{
   590239f4812cb4e5aba22f8e3a6f9f32
   Memcheck:Leak
   match-leak-kinds: reachable
   fun:_Znwm
   obj:/usr/lib/x86_64-linux-gnu/libLLVM-11.so.1
   obj:/usr/lib/x86_64-linux-gnu/libLLVM-11.so.1
   fun:_ZN4llvm2cl5applyINS0_3optINS_13RegBankSelect4ModeELb0ENS0_6parserIS4_EEEENS0_18NumOccurrencesFlagEJNS0_11ValuesClassEEEEvPT_RKT0_DpRKT1_
   obj:/usr/lib/x86_64-linux-gnu/libLLVM-11.so.1
   fun:call_init.part.0
   fun:call_init
   fun:_dl_init
   fun:_dl_catch_exception
   fun:dl_open_worker
   fun:_dl_catch_exception
   fun:_dl_open
   fun:dlopen_doit
}
{
   95aa5707bb23f753f81dcd4ad8f3c24f
   Memcheck:Leak
   match-leak-kinds: reachable
   fun:malloc
   fun:strdup
   obj:/usr/lib/x86_64-linux-gnu/libglapi.so.0.0.0
   fun:_glapi_get_proc_address
   obj:*
   obj:/usr/lib/x86_64-linux-gnu/libGLdispatch.so.0.0.0
   fun:__glDispatchMakeCurrent
   obj:/usr/lib/x86_64-linux-gnu/libGLX.so.0.0.0
   obj:/usr/lib/x86_64-linux-gnu/libGLX.so.0.0.0
   obj:/usr/lib/x86_64-linux-gnu/qt6/plugins/xcbglintegrations/libqxcb-glx-integration.so
   obj:/usr/lib/x86_64-linux-gnu/qt6/plugins/xcbglintegrations/libqxcb-glx-integration.so
   fun:_ZN14QOpenGLContext6createEv
}
{
   8b9667c38f4a4ffe14dd807c29f2e56f
   Memcheck:Leak
   match-leak-kinds: reachable
   fun:_Znwm
   obj:/usr/lib/x86_64-linux-gnu/libLLVM-11.so.1
   fun:__pthread_once_slow
   fun:_ZN4llvm34initializeObjCARCAAWrapperPassPassERNS_12PassRegistryE
   obj:/usr/lib/x86_64-linux-gnu/libLLVM-11.so.1
   fun:__pthread_once_slow
   fun:_ZN4llvm34initializeAAResultsWrapperPassPassERNS_12PassRegistryE
   obj:/usr/lib/x86_64-linux-gnu/libLLVM-11.so.1
   fun:__pthread_once_slow
   fun:_ZN4llvm32initializeScopInfoRegionPassPassERNS_12PassRegistryE
   obj:/usr/lib/x86_64-linux-gnu/libLLVM-11.so.1
   fun:__pthread_once_slow
}
{
   b06c36d0a365e00196a02d631bbce18b
   Memcheck:Leak
   match-leak-kinds: reachable
   fun:_Znwm
   obj:/usr/lib/x86_64-linux-gnu/libLLVM-11.so.1
   fun:__pthread_once_slow
   fun:_ZN4llvm36initializeTypeBasedAAWrapperPassPassERNS_12PassRegistryE
   obj:/usr/lib/x86_64-linux-gnu/libLLVM-11.so.1
   fun:__pthread_once_slow
   fun:_ZN4llvm34initializeAAResultsWrapperPassPassERNS_12PassRegistryE
   obj:/usr/lib/x86_64-linux-gnu/libLLVM-11.so.1
   fun:__pthread_once_slow
   fun:_ZN4llvm32initializeScopInfoRegionPassPassERNS_12PassRegistryE
   obj:/usr/lib/x86_64-linux-gnu/libLLVM-11.so.1
   fun:__pthread_once_slow
}
{
   e5517fce37aebd4d273f351e481442d5
   Memcheck:Leak
   match-leak-kinds: reachable
   fun:calloc
   fun:_XlcCreateLocaleDataBase
   obj:/usr/lib/x86_64-linux-gnu/libX11.so.6.4.0
   obj:/usr/lib/x86_64-linux-gnu/libX11.so.6.4.0
   fun:_XlcCreateLC
   fun:_XlcUtf8Loader
   fun:_XOpenLC
   fun:XmbTextListToTextProperty
   fun:_ZN10QXcbWindow14setWindowTitleEPK14QXcbConnectionjRK7QString
   fun:_ZN14QXcbConnection19getQtSelectionOwnerEv
   obj:/usr/lib/x86_64-linux-gnu/libQt6XcbQpa.so.6.2.4
   fun:_ZN14QXcbConnection17initializeScreensEv
}
{
   e8df3ba7e7f7915a76d233351201f03a
   Memcheck:Leak
   match-leak-kinds: reachable
   fun:_Znwm
   obj:/usr/lib/x86_64-linux-gnu/libLLVM-11.so.1
   fun:__pthread_once_slow
   fun:_ZN4llvm21createLowerSwitchPassEv
   obj:/usr/lib/x86_64-linux-gnu/libLLVM-11.so.1
   fun:_ZN4llvm16TargetPassConfig13addISelPassesEv
   fun:_ZN4llvm17LLVMTargetMachine19addPassesToEmitFileERNS_6legacy15PassManagerBaseERNS_17raw_pwrite_streamEPS4_NS_15CodeGenFileTypeEbPNS_28MachineModuleInfoWrapperPassE
   obj:/usr/lib/x86_64-linux-gnu/dri/radeonsi_dri.so
   obj:/usr/lib/x86_64-linux-gnu/dri/radeonsi_dri.so
   obj:/usr/lib/x86_64-linux-gnu/dri/radeonsi_dri.so
   obj:/usr/lib/x86_64-linux-gnu/dri/radeonsi_dri.so
   obj:/usr/lib/x86_64-linux-gnu/dri/radeonsi_dri.so
}
{
   b5e5c5fe01abf16b521fdf5e80aba905
   Memcheck:Leak
   match-leak-kinds: reachable
   fun:_Znwm
   obj:/usr/lib/x86_64-linux-gnu/libLLVM-11.so.1
   fun:__pthread_once_slow
   fun:_ZN4llvm32initializeModuloScheduleTestPassERNS_12PassRegistryE
   fun:_ZN4llvm17initializeCodeGenERNS_12PassRegistryE
   fun:_ZN4llvm16TargetPassConfigC1ERNS_17LLVMTargetMachineERNS_6legacy15PassManagerBaseE
   obj:/usr/lib/x86_64-linux-gnu/libLLVM-11.so.1
   fun:_ZN4llvm17LLVMTargetMachine19addPassesToEmitFileERNS_6legacy15PassManagerBaseERNS_17raw_pwrite_streamEPS4_NS_15CodeGenFileTypeEbPNS_28MachineModuleInfoWrapperPassE
   obj:/usr/lib/x86_64-linux-gnu/dri/radeonsi_dri.so
   obj:/usr/lib/x86_64-linux-gnu/dri/radeonsi_dri.so
   obj:/usr/lib/x86_64-linux-gnu/dri/radeonsi_dri.so
   obj:/usr/lib/x86_64-linux-gnu/dri/radeonsi_dri.so
}
{
   585b630ba8e0547628b46bd3cb0d8f59
   Memcheck:Leak
   match-leak-kinds: reachable
   fun:_Znwm
   obj:/usr/lib/x86_64-linux-gnu/libLLVM-11.so.1
   fun:_ZN4llvm12PassRegistry12registerPassERKNS_8PassInfoEb
   obj:/usr/lib/x86_64-linux-gnu/libLLVM-11.so.1
   fun:__pthread_once_slow
   fun:_ZN4llvm27initializeTypePromotionPassERNS_12PassRegistryE
   fun:_ZN4llvm17initializeCodeGenERNS_12PassRegistryE
   fun:_ZN4llvm16TargetPassConfigC1ERNS_17LLVMTargetMachineERNS_6legacy15PassManagerBaseE
   obj:/usr/lib/x86_64-linux-gnu/libLLVM-11.so.1
   fun:_ZN4llvm17LLVMTargetMachine19addPassesToEmitFileERNS_6legacy15PassManagerBaseERNS_17raw_pwrite_streamEPS4_NS_15CodeGenFileTypeEbPNS_28MachineModuleInfoWrapperPassE
   obj:/usr/lib/x86_64-linux-gnu/dri/radeonsi_dri.so
   obj:/usr/lib/x86_64-linux-gnu/dri/radeonsi_dri.so
}
{
   d76e6b26ee2e71fc02ab21d9c84699fd
   Memcheck:Leak
   match-leak-kinds: reachable
   fun:_Znwm
   obj:/usr/lib/x86_64-linux-gnu/libLLVM-11.so.1
   fun:__pthread_once_slow
   fun:_ZN4llvm30initializeBranchRelaxationPassERNS_12PassRegistryE
   fun:_ZN4llvm17initializeCodeGenERNS_12PassRegistryE
   fun:_ZN4llvm16TargetPassConfigC1ERNS_17LLVMTargetMachineERNS_6legacy15PassManagerBaseE
   obj:/usr/lib/x86_64-linux-gnu/libLLVM-11.so.1
   fun:_ZN4llvm17LLVMTargetMachine19addPassesToEmitFileERNS_6legacy15PassManagerBaseERNS_17raw_pwrite_streamEPS4_NS_15CodeGenFileTypeEbPNS_28MachineModuleInfoWrapperPassE
   obj:/usr/lib/x86_64-linux-gnu/dri/radeonsi_dri.so
   obj:/usr/lib/x86_64-linux-gnu/dri/radeonsi_dri.so
   obj:/usr/lib/x86_64-linux-gnu/dri/radeonsi_dri.so
   obj:/usr/lib/x86_64-linux-gnu/dri/radeonsi_dri.so
}
{
   876cf3acce5226d36e5de208fe64100c
   Memcheck:Leak
   match-leak-kinds: reachable
   fun:_Znwm
   obj:/usr/lib/x86_64-linux-gnu/libLLVM-11.so.1
   fun:_ZN4llvm12PassRegistry12registerPassERKNS_8PassInfoEb
   obj:/usr/lib/x86_64-linux-gnu/libLLVM-11.so.1
   fun:__pthread_once_slow
   fun:_ZN4llvm27initializeLiveIntervalsPassERNS_12PassRegistryE
   obj:/usr/lib/x86_64-linux-gnu/libLLVM-11.so.1
   fun:__pthread_once_slow
   obj:/usr/lib/x86_64-linux-gnu/libLLVM-11.so.1
   fun:LLVMInitializeAMDGPUTarget
   obj:/usr/lib/x86_64-linux-gnu/dri/radeonsi_dri.so
   fun:__pthread_once_slow
}
{
   c14e9471d58318c127939b48d60012fc
   Memcheck:Leak
   match-leak-kinds: reachable
   fun:_Znwm
   obj:/usr/lib/x86_64-linux-gnu/libLLVM-11.so.1
   fun:__pthread_once_slow
   fun:_ZN4llvm43initializeProfileSummaryInfoWrapperPassPassERNS_12PassRegistryE
   obj:/usr/lib/x86_64-linux-gnu/libLLVM-11.so.1
   fun:__pthread_once_slow
   obj:/usr/lib/x86_64-linux-gnu/libLLVM-11.so.1
   fun:LLVMInitializeAMDGPUTarget
   obj:/usr/lib/x86_64-linux-gnu/dri/radeonsi_dri.so
   fun:__pthread_once_slow
   obj:/usr/lib/x86_64-linux-gnu/dri/radeonsi_dri.so
   obj:/usr/lib/x86_64-linux-gnu/dri/radeonsi_dri.so
}
{
   2c8ce3bbdc33776cb2af236299e80277
   Memcheck:Leak
   match-leak-kinds: reachable
   fun:_Znwm
   obj:/usr/lib/x86_64-linux-gnu/libLLVM-11.so.1
   fun:_ZN4llvm12PassRegistry12registerPassERKNS_8PassInfoEb
   obj:/usr/lib/x86_64-linux-gnu/libLLVM-11.so.1
   fun:__pthread_once_slow
   fun:_ZN4llvm29initializeLiveRangeShrinkPassERNS_12PassRegistryE
   fun:_ZN4llvm17initializeCodeGenERNS_12PassRegistryE
   fun:_ZN4llvm16TargetPassConfigC1ERNS_17LLVMTargetMachineERNS_6legacy15PassManagerBaseE
   obj:/usr/lib/x86_64-linux-gnu/libLLVM-11.so.1
   fun:_ZN4llvm17LLVMTargetMachine19addPassesToEmitFileERNS_6legacy15PassManagerBaseERNS_17raw_pwrite_streamEPS4_NS_15CodeGenFileTypeEbPNS_28MachineModuleInfoWrapperPassE
   obj:/usr/lib/x86_64-linux-gnu/dri/radeonsi_dri.so
   obj:/usr/lib/x86_64-linux-gnu/dri/radeonsi_dri.so
}
{
   42190be7ec85b9f06dc372445bfe6be4
   Memcheck:Leak
   match-leak-kinds: reachable
   fun:_Znwm
   obj:/usr/lib/x86_64-linux-gnu/libLLVM-11.so.1
   fun:_ZN4llvm12PassRegistry12registerPassERKNS_8PassInfoEb
   obj:/usr/lib/x86_64-linux-gnu/libLLVM-11.so.1
   fun:__pthread_once_slow
   fun:_ZN4llvm26initializeRegAllocFastPassERNS_12PassRegistryE
   fun:_ZN4llvm17initializeCodeGenERNS_12PassRegistryE
   fun:_ZN4llvm16TargetPassConfigC1ERNS_17LLVMTargetMachineERNS_6legacy15PassManagerBaseE
   obj:/usr/lib/x86_64-linux-gnu/libLLVM-11.so.1
   fun:_ZN4llvm17LLVMTargetMachine19addPassesToEmitFileERNS_6legacy15PassManagerBaseERNS_17raw_pwrite_streamEPS4_NS_15CodeGenFileTypeEbPNS_28MachineModuleInfoWrapperPassE
   obj:/usr/lib/x86_64-linux-gnu/dri/radeonsi_dri.so
   obj:/usr/lib/x86_64-linux-gnu/dri/radeonsi_dri.so
}
{
   2df9ce8beedc06da8903e7e97e2a91c0
   Memcheck:Leak
   match-leak-kinds: reachable
   fun:_Znwm
   obj:/usr/lib/x86_64-linux-gnu/libLLVM-11.so.1
   fun:__pthread_once_slow
   fun:_ZN4llvm36initializeGISelKnownBitsAnalysisPassERNS_12PassRegistryE
   obj:/usr/lib/x86_64-linux-gnu/libLLVM-11.so.1
   fun:__pthread_once_slow
   fun:_ZN4llvm31initializeInstructionSelectPassERNS_12PassRegistryE
   fun:LLVMInitializeAMDGPUTarget
   obj:/usr/lib/x86_64-linux-gnu/dri/radeonsi_dri.so
   fun:__pthread_once_slow
   obj:/usr/lib/x86_64-linux-gnu/dri/radeonsi_dri.so
   obj:/usr/lib/x86_64-linux-gnu/dri/radeonsi_dri.so
}
{
   c78f7c20abc5a86c08a17f27a4908fa7
   Memcheck:Leak
   match-leak-kinds: reachable
   fun:_Znwm
   obj:/usr/lib/x86_64-linux-gnu/libLLVM-11.so.1
   fun:_ZN4llvm12PassRegistry12registerPassERKNS_8PassInfoEb
   obj:/usr/lib/x86_64-linux-gnu/libLLVM-11.so.1
   fun:__pthread_once_slow
   fun:_ZN4llvm26initializeLoopSimplifyPassERNS_12PassRegistryE
   fun:_ZN4llvm22initializeLoopPassPassERNS_12PassRegistryE
   obj:/usr/lib/x86_64-linux-gnu/libLLVM-11.so.1
   fun:__pthread_once_slow
   fun:_ZN4llvm14createLICMPassEv
   fun:LLVMAddLICMPass
   obj:/usr/lib/x86_64-linux-gnu/dri/radeonsi_dri.so
}
{
   fe01bc74a6f2bf38032c364770ae33ac
   Memcheck:Leak
   match-leak-kinds: reachable
   fun:malloc
   fun:UDataMemory_createNewInstance_67
   obj:/usr/lib/x86_64-linux-gnu/libicuuc.so.67.1
   obj:/usr/lib/x86_64-linux-gnu/libicuuc.so.67.1
   obj:/usr/lib/x86_64-linux-gnu/libicuuc.so.67.1
   obj:/usr/lib/x86_64-linux-gnu/libicuuc.so.67.1
   fun:_ZN6icu_6713CollationRoot4loadER10UErrorCode
   fun:_ZN6icu_6713CollationRoot17getRootCacheEntryER10UErrorCode
   fun:_ZN6icu_6715CollationLoader13loadTailoringERKNS_6LocaleER10UErrorCode
   fun:_ZN6icu_678Collator12makeInstanceERKNS_6LocaleER10UErrorCode
   fun:_ZN6icu_678Collator14createInstanceERKNS_6LocaleER10UErrorCode
   fun:ucol_open_67
}
